ccopy_reg
_reconstructor
p0
(cpandas.core.frame
DataFrame
p1
c__builtin__
object
p2
Ntp3
Rp4
(dp5
S'_metadata'
p6
(lp7
sS'_typ'
p8
S'dataframe'
p9
sS'_data'
p10
g0
(cpandas.core.internals
BlockManager
p11
g2
Ntp12
Rp13
((lp14
cpandas.core.indexes.base
_new_Index
p15
(cpandas.core.indexes.base
Index
p16
(dp17
S'data'
p18
cnumpy.core.multiarray
_reconstruct
p19
(cnumpy
ndarray
p20
(I0
tp21
S'b'
p22
tp23
Rp24
(I1
(I2
tp25
cnumpy
dtype
p26
(S'O8'
p27
I0
I1
tp28
Rp29
(I3
S'|'
p30
NNNI-1
I-1
I63
tp31
bI00
(lp32
S'Negative'
p33
aS'Positive'
p34
atp35
bsS'name'
p36
S'orientation'
p37
stp38
Rp39
ag15
(g16
(dp40
g18
g19
(g20
(I0
tp41
g22
tp42
Rp43
(I1
(I10
tp44
g29
I00
(lp45
Vapartment
p46
aVbed
p47
aVexperience
p48
aVhost
p49
aVlocation
p50
aVneighborhood
p51
aVplace
p52
aVrestaurant
p53
aVstay
p54
aVtime
p55
atp56
bsg36
S'feats'
p57
stp58
Rp59
a(lp60
g19
(g20
(I0
tp61
g22
tp62
Rp63
(I1
(I2
I10
tp64
g29
I01
(lp65
(lp66
S'cozy'
p67
aS', small'
p68
aS', extremely spacious'
p69
aS'Very cozy'
p70
aS'cozy'
p71
aS', not friendly'
p72
aS'Stylish, quite cold low'
p73
aS', quite cold low'
p74
aS'cozy'
p75
aS', filthy, unlivable, relieved'
p76
aS', minimal'
p77
aS', very cozy'
p78
aS', incredibly cozy'
p79
aS', small'
p80
aS', very cozy'
p81
aa(lp82
S', not very comfortable'
p83
aS', slightly lumpy'
p84
aS', hard'
p85
aS'cozy'
p86
aS', cozy'
p87
aa(lp88
S'slightly quieter'
p89
aa(lp90
S', extremely helpful'
p91
ag91
aS', extremely hospitable'
p92
ag92
aS', extremely accommodating'
p93
aS', extremely accommodating'
p94
aS', extremely responsive'
p95
aS'careful'
p96
aS', flat'
p97
aS', flat spacious'
p98
aS', not very accessible, which frustrating'
p99
aS', flat'
p100
aS', flat'
p101
aS', flat'
p102
aS', extremely responsive'
p103
aS', extremely responsive'
p104
aS', extremely responsive'
p105
aS', extremely helpful'
p106
aS', extremely responsive'
p107
aS', extremely hospitable'
p108
aS', flat'
p109
aS', flat'
p110
aS'flat'
p111
aS'flat'
p112
aS', extremely helpful'
p113
aS', less'
p114
ag114
aS', not very good'
p115
ag115
aS', extremely accommodating'
p116
aS'extremely gracious'
p117
aS', extremely flexible'
p118
aS', due'
p119
aS', extremely hospitable'
p120
ag120
aS', slow'
p121
aS', extremely helpful'
p122
aS', extremely prompt helpful'
p123
aS', extremely responsive'
p124
aS', extremely helpful'
p125
aS', extremely helpful'
p126
aS', slow, hard'
p127
aS', hard'
p128
aS', extremely helpful'
p129
aS', extremely accommodating'
p130
aa(lp131
S'flat'
p132
aS'flat central close'
p133
aS', active'
p134
aS', unbelievable'
p135
aS', that tough'
p136
aS'flat'
p137
aS', hard'
p138
aS', extremely convenient'
p139
aa(lp140
S'flat, terrific'
p141
aS', little'
p142
aa(lp143
S', cozy'
p144
aS', dirty'
p145
aS', cozy'
p146
aS', weird'
p147
aS', cold, comfortable'
p148
aS'quaint little'
p149
aS', very small cozy'
p150
aS', uncomfortable'
p151
aS'Spacious typical'
p152
aS', cozy'
p153
aS', cozy'
p154
aS'cozy'
p155
aS', not perfect'
p156
aS'Very cozy'
p157
aS', very cozy'
p158
aS', cozy'
p159
aS'such unbelievable'
p160
aS', secret'
p161
aa(lp162
S', less'
p163
aS'cozy'
p164
aS'little'
p165
aa(lp166
S'late'
p167
aS'expensive'
p168
aS', not perfect'
p169
aS', well past'
p170
aS'long, which'
p171
aS', flat, not better'
p172
aS'cozy'
p173
aa(lp174
S'long'
p175
aS'long'
p176
aS'few'
p177
aS'few'
p178
aS'little'
p179
aS'few'
p180
aS'short, unable'
p181
aS'few'
p182
aS'few'
p183
aS'few'
p184
aS', least'
p185
aS'few'
p186
aS'cold'
p187
aS'few'
p188
aS'limited'
p189
aa(lp190
S', clean'
p191
aS', very nice'
p192
aS', clean'
p193
aS', perfect'
p194
aS'Clean'
p195
aS', exactly as advertised'
p196
aS'Great'
p197
aS', quite spacious, relatively old'
p198
aS'charming convenient'
p199
aS', great'
p200
aS', clean'
p201
aS', perfect'
p202
aS', very clean'
p203
aS'beautiful'
p204
aS', very spacious'
p205
aS'Nice'
p206
aS'fabulous'
p207
aS'great'
p208
aS', really nice'
p209
aS'beautiful'
p210
aS', accurate'
p211
aS', very bright'
p212
aS', simple, free'
p213
aS', beautiful'
p214
aS', clean'
p215
aS', great'
p216
aS'Beautiful'
p217
aS'Great'
p218
aS', clean'
p219
aS', perfect'
p220
aS', true'
p221
aS', very clean'
p222
aS', very clean'
p223
aS'beautiful'
p224
aS', very clean'
p225
aS'Great'
p226
aS', right'
p227
aS'Lovely great'
p228
aS', beautiful'
p229
aS'amazing, perfect'
p230
aS', perfect'
p231
aS', modern'
p232
aS'lovely, perfect'
p233
aS'very great clean'
p234
aS', wonderful spacious'
p235
aS', comfortable'
p236
aS', perfect'
p237
aS', very nice'
p238
aS', extremely clean, also comfortable'
p239
aS', peaceful'
p240
aS', exceptional'
p241
aS'Beautiful perfect'
p242
aS', better'
p243
aS'lovely'
p244
aS', very welcoming'
p245
aS', clean'
p246
aS'amazingly comfy bright'
p247
aS'immaculately clean'
p248
aS', great'
p249
aS', clean'
p250
aS', ideal'
p251
aS'beautiful clean'
p252
aS'Beautiful'
p253
aS', perfect, very comfortable'
p254
aS', larger, able'
p255
aS', very lovely comfortable'
p256
aS', clean'
p257
aS'lovely'
p258
aS'lovely'
p259
aS', great'
p260
aS'Great'
p261
aS'Brilliant'
p262
aS', clean'
p263
aS', clean'
p264
aS'Great'
p265
aS', clean'
p266
aS', very perfect tidy'
p267
aS'cozy clean'
p268
aS', clean'
p269
aS'superb little'
p270
aS'little, great'
p271
aS', extremely comfortable clean'
p272
aS'clean simple'
p273
aS', extremely nice'
p274
aS', clean'
p275
aS', clean'
p276
aS'clean'
p277
aS', well large stocked'
p278
aS', tidy'
p279
aS'such amazing'
p280
aS', great'
p281
aS'very spacious great'
p282
aS'very Great spacious convenient'
p283
aS', clean'
p284
aS'spacious, just fine'
p285
aS', really nice'
p286
aS', clean'
p287
aS', very accurate'
p288
aS', clean'
p289
aS', easily accessible'
p290
aS', clean'
p291
aS'very basic, which perfect'
p292
aS'Beautiful'
p293
aS', gorgeous'
p294
aS', right'
p295
aS', clean'
p296
aS'Great'
p297
aS'Amazing spacious'
p298
aS', clean'
p299
aS', beautiful'
p300
aS', very very spacious'
p301
aS'very clean'
p302
aS'favorite'
p303
aS', accurate, very easy'
p304
aS', very clean'
p305
aS', very clean'
p306
aS', lovely'
p307
ag307
aS', very clean'
p308
aS', wonderful'
p309
aS'beautiful, very clean'
p310
aS', absolutely beautiful'
p311
aS', very nice'
p312
aS'Great'
p313
aS'beautifully spacious'
p314
aS'Great'
p315
aS'Excellent, really conveniant'
p316
aS'nice'
p317
aS', comfortable'
p318
aS'Great great'
p319
aS', amazing'
p320
aS', exactly as advertised, extremely comfortable'
p321
aS'amazing'
p322
aS', beautiful'
p323
aS', beautiful'
p324
aS'large'
p325
aS'Beautiful'
p326
aS', very comfortable'
p327
aS', comfortable stocked'
p328
aS'fabulous, thrilled'
p329
aS'great'
p330
aS'wonderfully comfortable'
p331
aS', easy'
p332
aS', wonderful'
p333
aS', very comfortable equipped'
p334
aS', impeccable'
p335
aS', clean'
p336
aS'Such great'
p337
aS', clean'
p338
aS', even better'
p339
aS', sure'
p340
aS', lovely'
p341
aS', sincere'
p342
aS'Perfect'
p343
aS'Fantastic spacious'
p344
aS'lovely friendly'
p345
aS', incredible'
p346
aS', fantastic'
p347
aS', amazing'
p348
aS', which, right'
p349
aS'lovely comfortable great'
p350
aS', fantastic'
p351
aS', clean'
p352
aS', lovely'
p353
aS', beautiful'
p354
aS', wonderful'
p355
aS'beautiful'
p356
aS'available'
p357
aS'Beautiful clean unique'
p358
aS', really spacious'
p359
aS'beautiful'
p360
aS'Whole'
p361
aS'Awesome amazing'
p362
aS'Awesome'
p363
aS'spacious, that able'
p364
aS', clean'
p365
aS', very close'
p366
aS'clean spacious'
p367
aS'lovely'
p368
aS', clean'
p369
aS', great'
p370
aS', perfect'
p371
aS', clean'
p372
aS'Very nice'
p373
aS', very comfortable'
p374
aS', very comfortable spacious'
p375
aS'Great'
p376
aS'great'
p377
aS', wonderful'
p378
aS', great'
p379
aS', perfect'
p380
aS', absolutely perfect'
p381
aS', perfect'
p382
aS'Nice'
p383
aS', very nice'
p384
aS', clean'
p385
aS'Nice'
p386
aS', very clean'
p387
aS', clean'
p388
aS'perfect quiet'
p389
aS', beautiful'
p390
aS'great'
p391
aS', exactly as advertised'
p392
aS', very clean'
p393
aS', clean'
p394
aS', perfect'
p395
aS'very Fabulous clean'
p396
aS', comfortable'
p397
aS', fantastic'
p398
aS', clean'
p399
aS', clean quiet'
p400
aS', clean'
p401
aS', clean'
p402
aS', exactly as advertised'
p403
aS'Nice'
p404
aS'really nice'
p405
aS', very clean convenient'
p406
aS', beautiful'
p407
aS', very nice'
p408
aS', very comfortable'
p409
aS'Great'
p410
aS'spacious bright'
p411
aS'nice large'
p412
aS', amazing'
p413
aS', perfect'
p414
aS'great'
p415
aS', clean'
p416
aS', more bare'
p417
aS', beautiful'
p418
aS', also beautiful'
p419
aS'beautiful'
p420
aS', amazing'
p421
aS', spacious, very comfortable'
p422
aS', very new'
p423
aS', very modern'
p424
aS', beautiful'
p425
aS'such nice'
p426
aS', modern'
p427
aS'Very nice modern looking'
p428
aS', clean'
p429
aS'Great'
p430
aS'such gorgeous'
p431
aS', absolutely lovely'
p432
aS', very clean'
p433
aS', very nice'
p434
aS', great'
p435
aS'What great'
p436
aS', which tricky, old'
p437
aS', clean'
p438
aS', clean'
p439
aS'Nice few'
p440
aS', very clean'
p441
aS'sunny bright big'
p442
aS'amazing'
p443
aS', perfect'
p444
aS'Great great'
p445
aS'clean'
p446
aS', absolutely amazing'
p447
aS', very well nice located'
p448
aS', comfortable'
p449
aS'fantastic'
p450
aS'wonderful'
p451
aS'cool old'
p452
aS', excellent'
p453
aS', bright'
p454
aS'wonderful'
p455
aS'spacious, still right quiet'
p456
aS'very lovely'
p457
aS', perfect'
p458
aS', very large'
p459
aS', great'
p460
aS'beautiful'
p461
aS', perfect'
p462
aS', extremely clean'
p463
aS', wonderful'
p464
aS', very large'
p465
aS'Great'
p466
aS', very great clean'
p467
aS', very spacious'
p468
aS'beautiful'
p469
aS', beautiful'
p470
aS', enough large'
p471
aS', very clean'
p472
aS', extremely comfortable'
p473
aS', very spacious'
p474
aS', very spacious'
p475
aS'Great spacious'
p476
aS'Beautiful spacious'
p477
aS'big, beautiful'
p478
aS', gorgeous'
p479
aS', beautiful'
p480
aS', clean'
p481
aS'Lovely spacious'
p482
aS'large spacious comfortable'
p483
aS'nice spacious'
p484
aS', very nice'
p485
aS', very roomy'
p486
aS', perfect'
p487
aS', more spacious, very nice'
p488
aS', comfortable'
p489
aS', very close'
p490
aS', gorgeous'
p491
aS', brilliant, really close'
p492
aS', clean'
p493
aS'perfectly sized, unbeatable'
p494
aS', clean'
p495
aS'wonderful'
p496
aS', clean, spacious'
p497
aS'Lovely'
p498
aS', wonderful'
p499
aS'very functional comfortable'
p500
aS', large'
p501
aS', very clean stocked'
p502
aS', comfortable'
p503
aS', nice'
p504
aS'great'
p505
aS', easy'
p506
aS', very clean'
p507
aS', very clean'
p508
aS', incredible'
p509
aS', super clean'
p510
aS', available'
p511
aS', extremely comfortable'
p512
aS', lovely'
p513
aS', great'
p514
aS'beautiful'
p515
aS'beautiful'
p516
aS', perfect'
p517
aS', clean'
p518
aS', flawless'
p519
aS', good'
p520
aS', clean'
p521
aS', clean'
p522
aS', great'
p523
aS', very clean'
p524
aS'very spotless sunny'
p525
aS', very clean'
p526
aS'beautiful'
p527
aS', lovely'
p528
aS', very nice'
p529
aS'beautiful'
p530
aS', perfect'
p531
aS', beautiful'
p532
aS', very available helpful'
p533
aS', very clean'
p534
aS'beautiful'
p535
aS', clean'
p536
aS'Beautiful'
p537
aS'beautiful'
p538
aS'beautiful'
p539
aS'very nice'
p540
aS', amazing'
p541
aS', fabulous'
p542
aS'very nice'
p543
aS', very comfortable'
p544
aS', lovely'
p545
aS', bright'
p546
aS', very clean'
p547
aS', Very spacious perfect'
p548
aS', perfect'
p549
aS'Great'
p550
aS'very comfortable'
p551
aS'very nice'
p552
aS'Lovely'
p553
aS', clean'
p554
aS', clean'
p555
aS', clean'
p556
aS', clean'
p557
aS', perfect'
p558
aS', modern'
p559
aS'comfortable'
p560
aS'nice clean'
p561
aS', beautiful'
p562
aS', clear'
p563
aS', clean'
p564
aS', great'
p565
aS'great'
p566
aS', very convenient'
p567
aS', clean'
p568
aS', lovely, comfortably spacious'
p569
aS', very clean'
p570
aS', even better'
p571
aS'super close'
p572
aS', fantastic'
p573
aS'charming vintage'
p574
aS'entire, fantastic'
p575
aS', very close'
p576
aS', very clean'
p577
aS'very Great easy'
p578
aS'Great great'
p579
aS'lovely sunny'
p580
aS'Lovely bright'
p581
aS', absolutely perfect'
p582
aS', very homey'
p583
aS'excellent'
p584
aS', beautiful'
p585
aS', very nice'
p586
aS', comfortable'
p587
aS', lovely'
p588
aS'Great'
p589
aS', very perfect clean'
p590
aS'better'
p591
aS'Amazing'
p592
aS'very absolutely clean beautiful, fussy'
p593
aS'great'
p594
aS', clean'
p595
aS'wonderfully spacious'
p596
aS', huge'
p597
aS', very clean'
p598
aS', great'
p599
aS'Lovely'
p600
aS'Beautiful spacious'
p601
aS', beautiful'
p602
aS', very clean'
p603
aS', lovely'
p604
aS'Lovely'
p605
aS'own'
p606
aS', clean'
p607
aS', glad'
p608
aS'Great'
p609
aS'great'
p610
aS', more perfect'
p611
aS'wonderful'
p612
aS', very clean'
p613
aS', lovely'
p614
aS', beautiful'
p615
aS', tasteful, very comfortable'
p616
aS', amazing'
p617
aS'lovely'
p618
aS', clean'
p619
aS'beautiful'
p620
aS', very spacious'
p621
aS'Awesome'
p622
aS'great'
p623
aS', great'
p624
aS', really comfortable'
p625
aS'wonderfully equipped'
p626
aS', very clean'
p627
aS'many'
p628
aS'Nice'
p629
aS', clean'
p630
aS'Super amazing'
p631
aS', very clean'
p632
aS'Great little'
p633
aS', clean'
p634
aS'fantastic'
p635
aS', very clean spacious'
p636
aS'Beautiful, that'
p637
aS'most gorgeous'
p638
aS', perfect'
p639
aS'clear'
p640
aS'Fantastic'
p641
aS', just right'
p642
aS', Very secure'
p643
aS', great'
p644
aS'Perfect'
p645
aS', very spacious'
p646
aS', very clean'
p647
aS', great'
p648
aS', great'
p649
aS', large'
p650
aS'very nice spacious'
p651
aS'Comfortable spacious'
p652
aS', extremely comfortable'
p653
aS', exactly as advertised'
p654
aS', comfortable'
p655
aS', very pleasant'
p656
aS', seamless'
p657
aS', lovely'
p658
aS', beautiful, better'
p659
aS'beautiful'
p660
aS', lovely'
p661
aS', clean'
p662
aS', clean'
p663
aS', absolutely perfect'
p664
aS', great'
p665
aS', clean'
p666
aS', quite nice'
p667
aS', clean'
p668
aS'very Nice convenient'
p669
aS', clean'
p670
aS', fine'
p671
aS', impeccably fantastic clean'
p672
aS', very responsive'
p673
aS'Lovely, which'
p674
aS', very nice neat'
p675
aS', very clean'
p676
aS', peaceful'
p677
aS'Modern cute'
p678
aS', small, clean'
p679
aS', perfect'
p680
aS'Such cute'
p681
aS', exactly as advertised'
p682
aS'nice comfortable'
p683
aS'Nice little'
p684
aS', clean'
p685
aS'Excellent'
p686
aS', that refreshing'
p687
aS'cute cozy'
p688
aS', very clean'
p689
aS', very comfortable'
p690
aS', clean'
p691
aS'Great'
p692
aS', comfortable'
p693
aS'perfect'
p694
aS', great'
p695
aS'beautiful'
p696
aS', beautiful'
p697
aS', exceptionally clean, cozy'
p698
aS', amazing'
p699
aS'lovely'
p700
aS', spotlessly clean'
p701
aS', also beautiful'
p702
aS'Great'
p703
aS', great'
p704
aS', great'
p705
aS', very comfortable'
p706
aS', charming'
p707
aS', just perfect'
p708
aS', very clean'
p709
aS'nice'
p710
aS', lovely'
p711
aS', very comfortable'
p712
aS', very clean'
p713
aS', clean'
p714
aS', clean'
p715
aS'Lovely'
p716
aS'Beautiful'
p717
aS', that, clean'
p718
aS', handy'
p719
aS', very homey'
p720
aS', lovely'
p721
aS'beautiful'
p722
aS', very clean'
p723
aS', very clean'
p724
aS', lovely'
p725
aS', clean'
p726
aS', very clean'
p727
aS', delightful'
p728
aS', beautiful'
p729
aS', lovely'
p730
aS', much nicer'
p731
aS', fantastic'
p732
aS', very clean'
p733
aS', sure'
p734
aS'lovely'
p735
aS', sure'
p736
aS', very relaxed'
p737
aS', charming'
p738
aS'Nice'
p739
aS'Very Great clean'
p740
aS'Beautiful homely'
p741
aS'great'
p742
aS'Lovely'
p743
aS', clean'
p744
aS'great'
p745
aS'Very clean comfortable'
p746
aS', stylish, safe'
p747
aS', absolutely gorgeous'
p748
aS', well wonderful equipped, spotless'
p749
aS', amazing'
p750
aS'beautiful'
p751
aS', great'
p752
aS'exceptionally well equipped'
p753
aS', extremely clean'
p754
aS', clean, very homey'
p755
aS', charming'
p756
aS'great'
p757
aS', pleasant'
p758
aS'beautiful imaginable'
p759
aS'lovely lovely'
p760
aS', safe'
p761
aS'great'
p762
aS', lovely'
p763
aS', comfortable'
p764
aS'Beautiful'
p765
aS'better'
p766
aS', that willing'
p767
aS'beautiful tidy, happy'
p768
aS', really gorgeous'
p769
aS'whole'
p770
aS'Amazing'
p771
aS', excellent'
p772
aS', very welcome'
p773
aS', easily fit'
p774
aS'Great'
p775
aS', clean equipped'
p776
aS', fantastic'
p777
aS'lovely'
p778
aS', simply amazing'
p779
aS', attractive'
p780
aS'beautiful'
p781
aS', comfortable'
p782
aS'Great'
p783
aS', cute'
p784
aS', very convenient'
p785
aS', lovely'
p786
aS', lovely'
p787
aS', very perfect clean'
p788
aS'nice clean'
p789
aS'Great'
p790
aS', clean'
p791
aS'great little'
p792
aS', clean'
p793
aS', perfect'
p794
aS', perfect, spacious'
p795
aS', very terrific comfortable'
p796
aS'fairly cute clean'
p797
aS'Nice little, nearer'
p798
aS'very very clean cozy'
p799
aS', rather large'
p800
aS', clean'
p801
aS', perfect'
p802
aS', large'
p803
aS', clean'
p804
aS', very clean'
p805
aa(lp806
S'good'
p807
aS'very comfortable flat'
p808
aS', more comfortable'
p809
aS', very comfortable'
p810
aS'comfy nice'
p811
aS'comfortable'
p812
aS', Very well very kept comfortable'
p813
aS', very comfortable'
p814
aS', fairly small adequate'
p815
aS', comfortable'
p816
aS', comfortable'
p817
aS', soft'
p818
aS', very comfortable'
p819
aS', comfortable'
p820
aS', very comfortable'
p821
aS'Comfortable'
p822
aS'super comfortable'
p823
aS', very comfortable'
p824
aS', really comfy, easy'
p825
aS'incredibly comfortable'
p826
aS', comfortable'
p827
aS', comfortable'
p828
aS', comfortable'
p829
aS', extremely comfortable'
p830
aS'SUPER COMFY'
p831
aS'super comfy'
p832
aS'Clean'
p833
aS', comfortable'
p834
aS'very comfortable'
p835
aS'comfortable'
p836
aS'most comfortable'
p837
aS'real comfy'
p838
aS', super'
p839
aS', aware'
p840
aS'comfortable'
p841
aS', very comfortable'
p842
aS', comfortable, extra'
p843
aS'super comfy'
p844
aS'clean'
p845
aS', very comfortable'
p846
aS'comfortable'
p847
aS'Double, fine'
p848
aS'hugely comfortable'
p849
aS', VERY comfortable'
p850
aS'very comfortable'
p851
aS', extremely comfortable'
p852
aS'Very comfortable'
p853
aS', comfortable'
p854
aS', comfortable'
p855
aS', very comfortable'
p856
aS', comfortable'
p857
aS'most comfortable'
p858
aS', really comfortable'
p859
aS', comfortable'
p860
aS', comfortable'
p861
aS', comfortable'
p862
aS', comfortable'
p863
aS', comfortable noisy'
p864
aS', comfortable'
p865
aS', comfortable'
p866
aS', comfortable, glad'
p867
aS', comfortable'
p868
aS', very comfortable'
p869
aS', comfortable'
p870
aS', very comfortable'
p871
aS'very comfortable'
p872
aS'Most comfy'
p873
aS', comfortable'
p874
aS', comfortable'
p875
aS'full'
p876
aS', really really comfortable'
p877
aS'super comfortable'
p878
aS', comfortable'
p879
aS', extremely comfortable'
p880
aS'comfortable'
p881
aS'comfortable'
p882
aS'comfortable'
p883
aS', very comfy'
p884
aS'comfortable'
p885
aS'Very comfortable'
p886
aS', really comfortable'
p887
aS'really comfortable'
p888
aS', more comfortable'
p889
aS', comfortable'
p890
aS', very comfy, better'
p891
aS', perfectly adequate'
p892
aS', also better comfortable equipped'
p893
aS', comfortable'
p894
aS', very comfortable'
p895
aS'Comfortable'
p896
aS'clean'
p897
aS'twin, comfortable'
p898
aS'twin, perfect'
p899
aS', comfortable'
p900
aS', perfectly scrumptous'
p901
aS', comfortable'
p902
aS', very comfortable'
p903
aS', good'
p904
aS', very comfortable, which'
p905
aS', old'
p906
aS', comfortable, very clean'
p907
aS', very old'
p908
aS'just Comfortable precarious'
p909
aS', really comfy'
p910
aS', very comfortable'
p911
aS', comfortable'
p912
aS'super comfy'
p913
aS'very comfortable'
p914
aS', comfortable'
p915
aS', comfortable'
p916
aS', comfortable'
p917
aS'super comfy'
p918
aS'great'
p919
aS', incredibly comfortable'
p920
aS', very comfortable'
p921
aS', very comfortable'
p922
aS', very comfortable'
p923
aS'extremely comfortable'
p924
aS'comfortable'
p925
aS'comfortable'
p926
aS'very comfortable'
p927
aS'very comfortable'
p928
aS'comfortable'
p929
aS', wonderfully comfortable'
p930
aS'very comfortable'
p931
aS'very comfortable'
p932
aS', really comfy'
p933
aS', comfortable'
p934
aS', very comfortable'
p935
aS'awesome'
p936
aS', very comfortable'
p937
aS', VERY comfortable'
p938
aS', comfortable'
p939
aS'very comfortable'
p940
aS'super comfortable'
p941
aS', very comfortable'
p942
aS'very good'
p943
aS'very comfortable'
p944
aS'comfortable'
p945
aS'very comfortable'
p946
aS'comfortable'
p947
aS'comfortable'
p948
aS', comfortable'
p949
aS', very comfortable'
p950
aS', lovely comfortable'
p951
aS', extremely comfortable'
p952
aS'Comfortable'
p953
aS'comfortable'
p954
aS', very comfortable'
p955
aS', comfortable'
p956
aS', great'
p957
aS'extremely comfortable'
p958
aS', comfortable'
p959
aS'seriously comfortable'
p960
aS'lovely comfortable'
p961
aS', wonderful'
p962
aS'very comfortable'
p963
aS'comfortable'
p964
aS', comfortable'
p965
aS'comfortable'
p966
aS'super comfy'
p967
aS', extremely comfortable'
p968
aS'own, comfortable'
p969
aS'double, high'
p970
aS'Comfortable'
p971
aS', great'
p972
aS'most comfortable'
p973
aS'very comfortable'
p974
aS'comfortable'
p975
aS', comfortable'
p976
aS', quite comfortable'
p977
aS', especially comfortable'
p978
aS', very comfortable'
p979
aS', comfortable'
p980
aS', very comfortable'
p981
aS'super comfy'
p982
aS', very comfortable'
p983
aS', very comfortable'
p984
aS'comfortable'
p985
aS', ok comfortable'
p986
aS'very comfortable'
p987
aS', wonderfully comfortable'
p988
aS', comfortable'
p989
aS', super'
p990
aS'extremely comfortable'
p991
aS'Nice'
p992
aS", n't too comfortable"
p993
aS', quite comfortable'
p994
aa(lp995
S'excellent'
p996
aS'better'
p997
aS'Fantastic'
p998
aS'What great'
p999
aS'great'
p1000
aS'nice'
p1001
aS'great'
p1002
aS'great'
p1003
aS'wonderful'
p1004
aS'first'
p1005
aS'wonderful'
p1006
aS'friendly local'
p1007
aS'wonderful'
p1008
aS'pleasant'
p1009
aS'very nice'
p1010
aS'Great'
p1011
aS'great'
p1012
aS'first'
p1013
aS'great'
p1014
aS'such great'
p1015
aS'great'
p1016
aS'first'
p1017
aS'ideal'
p1018
aS'real'
p1019
aS'first'
p1020
aS'immediate good'
p1021
aS', positive'
p1022
aS'overall great'
p1023
aS'good'
p1024
aS'great'
p1025
aS'great'
p1026
aS'great'
p1027
aS'amazing'
p1028
aS'great'
p1029
aS'absolutely wonderful'
p1030
aS'pretty nice'
p1031
aS'great'
p1032
aS', good'
p1033
aS'Great'
p1034
aS'first'
p1035
aS'wonderful'
p1036
aS'Fantastic'
p1037
aS'great'
p1038
aS'great'
p1039
aS'great'
p1040
aS', fantastic'
p1041
aS'best'
p1042
aS'very good'
p1043
aS'best'
p1044
aS'first'
p1045
aS'great'
p1046
aS'fantastic'
p1047
aS'great'
p1048
aS'nice'
p1049
aS'good'
p1050
aS'great'
p1051
aS'great first'
p1052
aS'first'
p1053
aS'really easy'
p1054
aS'First'
p1055
aS'great'
p1056
aS'Great'
p1057
aS'overall enjoyable'
p1058
aS'great'
p1059
aS'such good'
p1060
aS'very comfortable'
p1061
aS'What great'
p1062
aS'better first'
p1063
aS'great'
p1064
aS', mostly good'
p1065
aS'thrilling'
p1066
aS'all outstanding'
p1067
aS', generally good'
p1068
aS'great'
p1069
aS'Great'
p1070
aS'best'
p1071
aS'Great'
p1072
aS'Wonderful'
p1073
aS'great'
p1074
aS'first'
p1075
aS'better'
p1076
aS'very all good'
p1077
aS'Nice'
p1078
aS'extremely pleasant'
p1079
aS'whole'
p1080
aS'wonderful'
p1081
aS'great'
p1082
aS'quite good'
p1083
aS'wonderful'
p1084
aS'wonderful first airbnb'
p1085
aS', great'
p1086
aS'authentic'
p1087
aS'first'
p1088
aS'Wonderful first'
p1089
aS'Great'
p1090
aS'amazing'
p1091
aS'Wonderful'
p1092
aS'Great'
p1093
aS'good'
p1094
aS'wonderful'
p1095
aS'wonderful'
p1096
aS'What great'
p1097
aS'great'
p1098
aS'very good'
p1099
aS'positive'
p1100
aS'Wonderful'
p1101
aS'perfect first'
p1102
aS'wonderful'
p1103
aS'very beautiful'
p1104
aS'great'
p1105
aS'Great'
p1106
aS', intense'
p1107
aS'great'
p1108
aS'first'
p1109
aS'amazing'
p1110
aS'whole, simply wonderful'
p1111
aS'better'
p1112
aS'first'
p1113
aS'great'
p1114
aS'good'
p1115
aS'general, quite pleasant'
p1116
aS'great'
p1117
aS'Positive'
p1118
aS'great'
p1119
aS'first'
p1120
aS'phenomenal'
p1121
aS'Great'
p1122
aS'first'
p1123
aS'all great'
p1124
aS'first'
p1125
aS'best'
p1126
aS', excellent'
p1127
aS', fantastic'
p1128
aS'great'
p1129
aS'such great'
p1130
aS'very first airbnb'
p1131
aS'very positive'
p1132
aS'first'
p1133
aS'great'
p1134
aS'very positive'
p1135
aS'great'
p1136
aS'great'
p1137
aS', Overall great'
p1138
aS'such enjoyable'
p1139
aS'very great'
p1140
aS'first'
p1141
aS'first'
p1142
aS'first'
p1143
aS', awesome'
p1144
aS'best'
p1145
aS'great'
p1146
aS'wonderful'
p1147
aS', how wonderful'
p1148
aS'Such great'
p1149
aS'most delightful'
p1150
aS'wonderful'
p1151
aS'better'
p1152
aS'excellent'
p1153
aS'wonderful'
p1154
aS'such nice'
p1155
aS'favorite'
p1156
aS'best'
p1157
aS'whole, effortless'
p1158
aS'great'
p1159
aS'Great'
p1160
aS'great'
p1161
aS'whole'
p1162
aS'fantastic'
p1163
aS'wonderful'
p1164
aS'good'
p1165
aS'wonderful'
p1166
aS'wonderful'
p1167
aS'wonderful'
p1168
aS', great'
p1169
aS'first'
p1170
aS'Great'
p1171
aS'much nicer'
p1172
aS'wonderful'
p1173
aS'fantastic'
p1174
aS'first'
p1175
aS'first'
p1176
aS'whole, awesome'
p1177
aS'great'
p1178
aS'Great'
p1179
aS'whole, effortless'
p1180
aS'very pleasant'
p1181
aS'very good, super'
p1182
aS'first'
p1183
aS'pleasant'
p1184
aS'fabulous'
p1185
aS'good'
p1186
aS'first'
p1187
aS'better that, immediately when responsive'
p1188
aS'many cultural'
p1189
aS'great'
p1190
aS'wonderful'
p1191
aS'great'
p1192
aS'Great'
p1193
aS'Great'
p1194
aS'wonderful'
p1195
aS'Great'
p1196
aS', free'
p1197
aS'first'
p1198
aS'fantastic'
p1199
aS'Best'
p1200
aS'first'
p1201
aS'most enjoyable'
p1202
aS'great'
p1203
aS'best'
p1204
aS'What great'
p1205
aS'great'
p1206
aS'great'
p1207
aS'enjoyable'
p1208
aS'wonderful'
p1209
aS'amazing'
p1210
aS', seamless'
p1211
aS'fantastic'
p1212
aS'first'
p1213
aS'amazing'
p1214
aS'great'
p1215
aS'amazing'
p1216
aS'wonderful'
p1217
aS'great'
p1218
aS'better'
p1219
aS'lovely'
p1220
aS'Wonderful'
p1221
aS'such incredible'
p1222
aS'first'
p1223
aS'Great'
p1224
aS'great'
p1225
aa(lp1226
S', available, which'
p1227
aS'great'
p1228
aS', very nice'
p1229
ag1229
aS', very easy'
p1230
aS', super responsive'
p1231
aS', very responsive'
p1232
aS', very responsive'
p1233
aS'excellent'
p1234
aS'excellent'
p1235
aS', apt'
p1236
aS', always available'
p1237
aS'great'
p1238
aS'wonderful'
p1239
aS', quick'
p1240
aS'fantastic'
p1241
aS', highly responsive'
p1242
aS'very accommodating'
p1243
aS', ready'
p1244
aS'great friendly'
p1245
aS'perfect'
p1246
aS'Great'
p1247
aS', very friendly'
p1248
aS'great'
p1249
aS', very friendly'
p1250
aS'wonderful gracious'
p1251
aS'wonderful'
p1252
aS'great'
p1253
aS', very accommodating'
p1254
aS'wonderful'
p1255
aS'excellent'
p1256
aS', very comfortable'
p1257
aS', safe'
p1258
aS'excellent, safe'
p1259
aS', great'
p1260
aS'Excellent'
p1261
aS', very accommodating'
p1262
aS'great, very accommodating'
p1263
aS'fantastic'
p1264
aS', very nice'
p1265
aS', fantastic'
p1266
aS', warm'
p1267
aS', very welcoming'
p1268
aS'great'
p1269
aS'great'
p1270
aS', available'
p1271
aS'great, available'
p1272
aS', really nice'
p1273
aS', very comfortable'
p1274
aS'ideal'
p1275
aS', really nice'
p1276
aS', really friendly'
p1277
aS', easy'
p1278
aS', very friendly'
p1279
aS'very very wonderful attentive friendly'
p1280
aS', very friendly'
p1281
ag1281
aS', very easy'
p1282
aS', very accommodating'
p1283
aS'very nice'
p1284
aS', very cute'
p1285
aS'great'
p1286
aS', very welcoming'
p1287
aS'great'
p1288
aS', warm'
p1289
aS'wonderful'
p1290
aS'great'
p1291
aS'great'
p1292
aS', helpful, easy'
p1293
aS'very friendly native'
p1294
aS', extremely friendly'
p1295
aS'excellent thoughtful'
p1296
aS', really friendly'
p1297
aS'great'
p1298
aS'gracious friendly'
p1299
aS', pretty'
p1300
aS', very helpful'
p1301
aS', super easy'
p1302
aS'very warm'
p1303
aS'amazing'
p1304
aS'great'
p1305
aS'Absolutely recommendable'
p1306
aS', super nice'
p1307
aS'Great'
p1308
aS', sure'
p1309
aS'great'
p1310
aS', sweet'
p1311
aS'really great thoughtful'
p1312
aS', respectful, busy most'
p1313
aS', very responsive'
p1314
aS'wonderful'
p1315
aS'awesome'
p1316
aS', early'
p1317
aS', very nice'
p1318
ag1318
aS'very awesome communicative'
p1319
aS'great'
p1320
aS', wonderful'
p1321
aS'perfect open'
p1322
aS', easy'
p1323
aS', good'
p1324
ag1324
aS', great'
p1325
ag1325
aS', very helpful'
p1326
aS', quite quick'
p1327
aS', very helpful'
p1328
aS', very friendly'
p1329
aS', really great'
p1330
aS'great'
p1331
aS', friendly'
p1332
ag1332
aS', really sweet'
p1333
aS', good'
p1334
aS', nice'
p1335
aS', easy'
p1336
aS'wonderful'
p1337
aS'wonderful'
p1338
aS', very accommodating'
p1339
ag1339
aS', sweet'
p1340
aS'delightful'
p1341
aS'Amazing flat'
p1342
aS'amazing'
p1343
aS'great responsive'
p1344
aS', very responsive'
p1345
aS', great'
p1346
aS', more gracious'
p1347
aS', lovely'
p1348
aS', more helpful'
p1349
ag1349
aS', how wonderful'
p1350
aS'most conscientious imaginable'
p1351
aS'Such wonderful'
p1352
aS'great'
p1353
aS'wonderful'
p1354
aS'great'
p1355
aS', very helpful, sure, comfortable'
p1356
aS'fantastic'
p1357
aS'great'
p1358
aS', better'
p1359
aS'great'
p1360
aS'fantastic'
p1361
aS'great'
p1362
aS'free'
p1363
aS'friendly responsive'
p1364
aS', very responsive'
p1365
aS', very nice'
p1366
aS', quick'
p1367
aS'wonderful'
p1368
aS', very friendly'
p1369
aS'friendly'
p1370
aS', accommodating, quick'
p1371
aS', very responsive'
p1372
aS'very helpful'
p1373
aS'Very accommodating'
p1374
aS', more friendly'
p1375
aS', very helpful'
p1376
aS', very responsive'
p1377
aS'accessible'
p1378
aS', available'
p1379
aS', very responsive'
p1380
aS', very quick'
p1381
aS', really great'
p1382
aS'perfect'
p1383
aS', very helpful, always willing'
p1384
aS', very helpful'
p1385
aS'really great communicative'
p1386
aS'Attentive'
p1387
aS', always available, sure'
p1388
aS', very sure happy'
p1389
aS', very responsible'
p1390
aS', amazing'
p1391
aS', good'
p1392
aS'fantastic'
p1393
aS', easy'
p1394
aS', warm, very responsive'
p1395
aS', great'
p1396
aS', just wonderful'
p1397
aS', very accommodating'
p1398
aS'Gorgeous'
p1399
aS', very responsive'
p1400
aS'very pleasant'
p1401
aS'very great responsive'
p1402
aS', friendly'
p1403
aS', very responsive'
p1404
aS'great'
p1405
aS', very quick'
p1406
aS', very responsive'
p1407
aS', very quick'
p1408
aS', thoughtful'
p1409
aS', very attentive'
p1410
aS'perfect'
p1411
aS'great, that'
p1412
aS'perfect easy'
p1413
aS'perfect'
p1414
aS'perfect'
p1415
aS'fantastic'
p1416
aS', very helpful'
p1417
aS'friendly'
p1418
aS'such amazing'
p1419
aS', easily contactable'
p1420
aS', very helpful'
p1421
aS', very helpful'
p1422
aS', very hospitable'
p1423
aS', very helpful'
p1424
aS', more'
p1425
aS', friendly'
p1426
aS', friendly'
p1427
aS', easy'
p1428
aS'great'
p1429
aS'very lovely friendly'
p1430
aS', great'
p1431
aS'Great'
p1432
aS', good'
p1433
aS'good flexible'
p1434
aS', very warm, available'
p1435
aS'very welcoming'
p1436
aS', very welcoming'
p1437
aS', nice'
p1438
aS'great'
p1439
aS', friendly'
p1440
aS'fantastic'
p1441
aS'great'
p1442
aS', very detailed'
p1443
aS'such genuine'
p1444
aS'great'
p1445
aS'great'
p1446
aS', really helpful'
p1447
aS', very helpful, welcome'
p1448
aS', very welcome'
p1449
aS'great'
p1450
aS', very responsive'
p1451
aS'best'
p1452
aS', lovely, available'
p1453
aS'great'
p1454
aS', available'
p1455
aS', wonderful'
p1456
aS', sweet'
p1457
aS', very friendly'
p1458
aS'very excellent attentive'
p1459
aS', very responsive'
p1460
aS', great'
p1461
aS', easy'
p1462
aS', easy'
p1463
aS", n't able, very organized"
p1464
aS', extremely quick'
p1465
aS', very helpful'
p1466
aS', friendly'
p1467
aS'great'
p1468
aS'such incredible'
p1469
aS', perfect'
p1470
aS', easy'
p1471
aS'amazing'
p1472
aS', very great'
p1473
ag1473
ag1473
aS'friendly'
p1474
aS', great'
p1475
aS', quick'
p1476
aS', absolutely fabulous'
p1477
aS'warm'
p1478
aS', more helpful'
p1479
aS'great, more helpful'
p1480
aS', very accessible, sure'
p1481
aS', very quick'
p1482
ag1482
aS'wonderful'
p1483
aS', extremely easy'
p1484
aS'wonderful'
p1485
aS', most accommodating, very welcome'
p1486
aS', very accommodating'
p1487
aS', very welcoming'
p1488
aS', very nice'
p1489
aS'most amazing'
p1490
aS', professional'
p1491
ag1491
aS'great'
p1492
aS', not disappointed'
p1493
aS'wonderful'
p1494
aS', very helpful'
p1495
ag1495
aS'great'
p1496
aS', very friendly'
p1497
aS', available'
p1498
aS', very friendly'
p1499
aS', comfortable'
p1500
aS'fantastic'
p1501
aS', wonderful'
p1502
aS', super easy'
p1503
aS', very easy'
p1504
aS', very easy'
p1505
aS'comfortable'
p1506
aS'very welcoming'
p1507
aS'great'
p1508
aS'Very accommodating'
p1509
aS', super responsive'
p1510
aS'beautiful'
p1511
aS', very friendly helpful'
p1512
aS', great, friendly'
p1513
aS', really easy'
p1514
aS', wonderful'
p1515
aS', very always responsive willing'
p1516
aS', available'
p1517
aS', perfect'
p1518
aS', very helpfull'
p1519
aS'great'
p1520
aS', quick'
p1521
aS', flat charming'
p1522
aS'super, flat charming'
p1523
aS', very helpful'
p1524
aS'great'
p1525
aS', very friendly'
p1526
aS', very helpful'
p1527
aS', very helpful'
p1528
aS'wonderful'
p1529
aS', very responsive w/'
p1530
aS', flat gorgeous'
p1531
aS'wonderful'
p1532
aS', very flexible'
p1533
aS', very helpful'
p1534
aS', always available'
p1535
aS'great, always available'
p1536
aS', very helpful'
p1537
aS'great'
p1538
aS'excellent'
p1539
aS', very helpful'
p1540
ag1540
aS'amazing'
p1541
aS'great'
p1542
aS'great'
p1543
aS', very welcome'
p1544
aS'exceptional'
p1545
aS', very accommodating'
p1546
ag1546
aS', very easy'
p1547
aS'great'
p1548
aS'great'
p1549
aS', welcome'
p1550
aS'great'
p1551
aS'always Wonderful quick'
p1552
aS', most accommodating'
p1553
ag1553
aS'Great'
p1554
aS'Great flat'
p1555
aS'perfect'
p1556
aS', really helpful'
p1557
aS'perfect'
p1558
aS', very welcome'
p1559
aS'good'
p1560
aS', right'
p1561
aS', true'
p1562
ag1562
ag1562
aS', very hospitable'
p1563
aS'super'
p1564
aS', next clean'
p1565
aS'such sweet, sure'
p1566
aS', better'
p1567
aS', available helpful'
p1568
ag1568
aS', ever ready'
p1569
aS', very helpful'
p1570
aS'great'
p1571
aS', very responsive'
p1572
aS'great'
p1573
aS', available'
p1574
aS'great'
p1575
aS', very prompt'
p1576
aS', very responsive'
p1577
aS'great, very responsive'
p1578
aS', easy, helpful'
p1579
aS'excellent'
p1580
aS'very great responsive'
p1581
aS', great'
p1582
aS', easy, very responsive'
p1583
aS', very comfortable'
p1584
aS', available'
p1585
aS'awesome'
p1586
aS'exceptional'
p1587
aS', very accommodating'
p1588
aS'great'
p1589
aS'great'
p1590
aS'great'
p1591
aS', friendly, apt nice'
p1592
aS', very gracious'
p1593
aS', quick'
p1594
aS', very accommodating'
p1595
aS', sure'
p1596
aS'fantastic, sure'
p1597
aS'very amazing accommodating'
p1598
aS'great'
p1599
aS', more'
p1600
aS', very accommodating'
p1601
aS', very quick'
p1602
aS', very helpful'
p1603
aS', very helpful, extremely easy'
p1604
aS', very responsive'
p1605
aS', nice'
p1606
aS'fantastic'
p1607
aS', very responsive'
p1608
aS'good'
p1609
aS', very helpful'
p1610
aS'great'
p1611
aS', great'
p1612
aS'always gracious available'
p1613
aS', easy'
p1614
aS', fantastic'
p1615
ag1615
aS', right'
p1616
aS', easy'
p1617
aS', very nice'
p1618
aS', more perfect'
p1619
aS'wonderful'
p1620
aS', quick, glad'
p1621
aS', always available'
p1622
aS'great'
p1623
aS'great'
p1624
aS'great'
p1625
aS', great, very welcome'
p1626
aS'What great'
p1627
aS', very attentive, welcome'
p1628
aS', right'
p1629
aS', Very responsive'
p1630
aS'great'
p1631
aS'very considerate'
p1632
aS', very helpful'
p1633
aS', easy'
p1634
aS'most friendly'
p1635
aS'very conscientious'
p1636
aS'excellent'
p1637
aS', very easy responsive'
p1638
aS'excellent'
p1639
aS', very accommodating, easy'
p1640
aS'great'
p1641
aS'good'
p1642
aS'easy, eager, helpful'
p1643
aS'wonderful'
p1644
aS'great'
p1645
aS'great'
p1646
aS'great'
p1647
aS', easy'
p1648
aS'perfect'
p1649
aS', very helpful'
p1650
aS', very easy'
p1651
aS'great'
p1652
aS', very gracious'
p1653
aS', very responsive'
p1654
aS', excellent'
p1655
aS'very responsive'
p1656
aS', very accommodating'
p1657
aS', available'
p1658
aS', beautiful'
p1659
aS', very responsive'
p1660
aS', very nice'
p1661
aS', very professional'
p1662
aS', very helpful'
p1663
aS'great, very helpful'
p1664
aS', super easy'
p1665
aS', very clean'
p1666
aS', wonderful'
p1667
aS'Great'
p1668
aS', easy'
p1669
aS'great'
p1670
aS', great'
p1671
aS', very responsive'
p1672
aS'great'
p1673
aS'great'
p1674
aS'warm'
p1675
aS'safe'
p1676
aS', incredibly easy'
p1677
aS', very communicative'
p1678
aS'great'
p1679
aS', very super responsive helpful'
p1680
aS'great'
p1681
aS'easy'
p1682
aS', very easy'
p1683
ag1683
ag1683
aS', quick'
p1684
aS', very helpful'
p1685
aS', right visible'
p1686
ag1686
aS'perfect'
p1687
aS', comfortable'
p1688
aS', great'
p1689
aS', very easy'
p1690
aS'great'
p1691
aS', great'
p1692
aS', absolutely fantastic'
p1693
aS'great'
p1694
aS', very welcome'
p1695
aS'fantastic easy, very welcome'
p1696
aS'great'
p1697
aS'very good'
p1698
aS'great'
p1699
aS', great'
p1700
aS', easy'
p1701
aS', very accommodating'
p1702
aS'great'
p1703
aS'wonderful'
p1704
aS'best'
p1705
aS'great'
p1706
aS', very quick'
p1707
aS', very attentive'
p1708
aS', how attentive'
p1709
aS'Really as communicative better'
p1710
aS'Great clean'
p1711
aS'wonderful'
p1712
aS', early'
p1713
aS'amazing'
p1714
aS', super'
p1715
aS', hugely accommodating'
p1716
aS', better'
p1717
ag1717
aS'perfect'
p1718
aS'wonderful'
p1719
aS'great, flat'
p1720
aS'very nice'
p1721
aS'Wonderful'
p1722
aS', always available'
p1723
aS'perfect'
p1724
aS'great'
p1725
aS'perfect helpful'
p1726
aS'wonderful, easier'
p1727
aS'great'
p1728
aS'wonderful'
p1729
aS'wonderful'
p1730
aS'excellent'
p1731
aS'lovely'
p1732
aS', very helpful'
p1733
aS'excellent'
p1734
aS'amazing'
p1735
aS'wonderful'
p1736
aS', very nice, considerate'
p1737
aS'great'
p1738
aS'super flat'
p1739
aS', best, minimally intrusive'
p1740
aS', happy'
p1741
aS', friendly, easy'
p1742
aS'wonderful'
p1743
aS'lovely great'
p1744
aS'Great'
p1745
aS'very friendly warm'
p1746
aS'incredible'
p1747
aS', flat charming'
p1748
aS'great'
p1749
aS'very helpful'
p1750
aS'lovely, very welcome'
p1751
aS', lovely'
p1752
aS', good'
p1753
aS'wonderful'
p1754
aS', very welcome'
p1755
aS'very gracious'
p1756
aS', flat lovely-'
p1757
aS'charming, flat lovely-'
p1758
aS'ideal'
p1759
aS'very attentive available'
p1760
aS', very welcoming'
p1761
aS'very good'
p1762
aS'Fantastic'
p1763
aS'great'
p1764
aS', not unfortunately smoothest'
p1765
aS', really respectful'
p1766
aS'wonderful'
p1767
aS'Lovely'
p1768
aS'thoughtful communicative'
p1769
aS', really friendly'
p1770
aS', very accommodating'
p1771
aS'excellent'
p1772
aS'perfect'
p1773
aS', very responsive'
p1774
aS'great'
p1775
aS'amazing'
p1776
aS'clean'
p1777
aS'very wonderful helpful'
p1778
aS'great'
p1779
aS'very best accommodating respectful'
p1780
aS'such nice friendly'
p1781
aS'really great'
p1782
aS', very friendly'
p1783
aS', very warm'
p1784
aS', very accommodating'
p1785
aS', wonderfully accommodating'
p1786
aS'lovely friendly'
p1787
aS'very nice'
p1788
aS'wonderful'
p1789
aS', great'
p1790
ag1790
aS', warm, respectful'
p1791
aS'wonderful soulful open'
p1792
aS', warm'
p1793
aS', always available'
p1794
aS'wonderful'
p1795
aS'perfectly Great accommodating'
p1796
aS', really lovely'
p1797
ag1797
aS'great'
p1798
aS'warm'
p1799
aS', very accommodating'
p1800
aS', very accommodating, able'
p1801
aS', very quick'
p1802
aS', friendly'
p1803
aS'great'
p1804
aS', very friendly'
p1805
aS', perfect'
p1806
aS'very accommodating'
p1807
aS'great'
p1808
aS'awesome'
p1809
aS', very accommodating'
p1810
aS'great'
p1811
aS', very communicative'
p1812
aS'lovely'
p1813
aS', very responsive'
p1814
aS', very accommodating'
p1815
aS', very welcome'
p1816
aS'excellent'
p1817
aS', very easy'
p1818
aS'excellent'
p1819
aS'great'
p1820
aS', great'
p1821
aS', very friendly'
p1822
aS'wonderful'
p1823
aS', extremely attentive'
p1824
aS'better'
p1825
aS'very nice'
p1826
aS', very nice'
p1827
aS', very helpful'
p1828
aS'perfect'
p1829
aS'Wonderful'
p1830
aS', wonderful'
p1831
aS'wonderful'
p1832
aS', very friendly'
p1833
aS', very welcome'
p1834
aS'best'
p1835
aS', very pleasant'
p1836
aS'most welcoming'
p1837
aS', great, very communicative'
p1838
aS', most accommodating'
p1839
aS', easy'
p1840
aS', really easy'
p1841
aS', very hospitable'
p1842
aS'excellent'
p1843
aS'great'
p1844
aS', very accommodating'
p1845
aS', enough nice'
p1846
aS'very excellent attentive'
p1847
aS', very quick'
p1848
aS', very hospitable, very quick'
p1849
aS'great'
p1850
aS', fantastic'
p1851
aS', really clear'
p1852
aS', very responsive'
p1853
aS'better'
p1854
aS', amazing'
p1855
aS', good'
p1856
aS'Great'
p1857
aS', better'
p1858
aS'Great'
p1859
aS'really great'
p1860
aS'wonderful'
p1861
aS'perfect'
p1862
aS', experienced'
p1863
aS', very friendly'
p1864
aS', friendly'
p1865
aS', very welcome'
p1866
aS'wonderful'
p1867
aS'perfect'
p1868
aS'wonderful'
p1869
aS'such warm'
p1870
aS'wonderful'
p1871
aS'really kind'
p1872
aS'amazing'
p1873
aS'very warm'
p1874
aS', very friendly'
p1875
aS', extreamly lovely'
p1876
aS'wonderful'
p1877
aS'perfect'
p1878
aS', very responsive, available'
p1879
aS', very helpful'
p1880
aS', very attentive, ok'
p1881
aS', great, sure'
p1882
aS', very friendly'
p1883
aS', awesome'
p1884
aS'great'
p1885
aS'impeccable'
p1886
aS', outstanding'
p1887
aS'fantastic'
p1888
aS'superb'
p1889
aS', incredibly warm'
p1890
ag1890
aS', thoughtful'
p1891
aS'lovely'
p1892
aS', most welcome'
p1893
aS'lovely, most welcome'
p1894
aS', awesome, very comfortable'
p1895
aS', very comfortable'
p1896
aS', wonderful, very communicative'
p1897
aS', warm'
p1898
aS', great lost'
p1899
aS'excellent'
p1900
aS'amazing'
p1901
aS', nice, which grateful'
p1902
aS', very wonderful friendly helpful, very which grateful'
p1903
aS'very great easy'
p1904
aS', right'
p1905
aS', really lovely'
p1906
aS', very encloned'
p1907
aS', very nice, very clean quiet'
p1908
aS'great'
p1909
aS'great'
p1910
aS', very welcoming, quick'
p1911
aS', friendly'
p1912
aS', very helpful'
p1913
aS'Very responsive'
p1914
aS'wonderful'
p1915
aS'wonderful'
p1916
aS'great'
p1917
aS', sweet'
p1918
aS'good'
p1919
aS', very friendly'
p1920
aS'very nice'
p1921
aS', lovely'
p1922
aS'wonderful'
p1923
aS', very warm'
p1924
aS'wonderful'
p1925
aS'gratuitous pleasant'
p1926
aS'complete'
p1927
aS'great available'
p1928
aS', sure, comfortable'
p1929
aS'fantastic'
p1930
aS', easy'
p1931
aS'very sweet'
p1932
aS'great'
p1933
aS', very nice'
p1934
aS', very welcoming'
p1935
ag1935
aS'great'
p1936
aS', very friendly'
p1937
aS'Great'
p1938
aS'wonderful'
p1939
aS', extremely easy'
p1940
aS', incredibly responsive'
p1941
aS'amazing'
p1942
aS'great'
p1943
aS'wonderful'
p1944
aS', available'
p1945
aS'very nice'
p1946
aS', attentive'
p1947
ag1947
aS', very accommodating'
p1948
aS', very helpful'
p1949
aS'great'
p1950
aS'very great prompt'
p1951
aS', great'
p1952
aS'lovely, great'
p1953
aS', fantastic'
p1954
aS'very nice'
p1955
aS', very helpful'
p1956
aS', very lovely'
p1957
aS'great'
p1958
aS', very accommodating'
p1959
aS', more'
p1960
aS', super responsive'
p1961
aS', great, sure'
p1962
aS', great, sure'
p1963
aS', very welcoming'
p1964
aS', great'
p1965
aS', very welcoming'
p1966
ag1966
aS', very nice'
p1967
aS', very good'
p1968
aS'very gracious'
p1969
aS', great'
p1970
aS'great'
p1971
aS'perfect'
p1972
aS'wonderful'
p1973
aS', easy, which nice'
p1974
aS'wonderful'
p1975
aS', great'
p1976
aS', very discreet'
p1977
ag1977
aS', very sweet'
p1978
aS'great'
p1979
aS'great'
p1980
aS', very accommodating'
p1981
aS', awesome'
p1982
aS', right'
p1983
aS', more comfortable'
p1984
aS'wonderful, more comfortable'
p1985
aS', good'
p1986
aS', super knowledgeable'
p1987
aS'such great'
p1988
aS'wonderful'
p1989
aS', great'
p1990
aS', really nice'
p1991
aS'Very gracious'
p1992
aS'fantastic'
p1993
aS', warm'
p1994
aS', most gracious'
p1995
aS'fantastic'
p1996
aS'very brilliant helpful'
p1997
aS'very gracious'
p1998
aS', early'
p1999
aS', readily available'
p2000
aS', very helpful'
p2001
aS'super'
p2002
aS', very friendly'
p2003
aS', kind'
p2004
aS'very welcoming'
p2005
aS'excellent'
p2006
aS'incredible'
p2007
aS', super lovely'
p2008
aS', wonderful'
p2009
aS'great'
p2010
aS', very friendly'
p2011
ag2011
aS', special'
p2012
aS', stunning'
p2013
ag2013
aS'excellent'
p2014
aS'fun'
p2015
aS'remarkable'
p2016
aS', worth'
p2017
aS'great'
p2018
aS'wonderful'
p2019
aS'great'
p2020
aS', very friendly'
p2021
ag2021
aS', interesting'
p2022
ag2022
aS'wonderful, much'
p2023
aS'very great friendly'
p2024
aS', fascinating'
p2025
aS'perfect individual'
p2026
aS'best'
p2027
aS', very friendly'
p2028
ag2028
aS'marvelous'
p2029
aS'wonderful'
p2030
aS', very friendly'
p2031
aS', great'
p2032
ag2032
aS', most warm, generous'
p2033
aS', most warm, generous'
p2034
aS'best'
p2035
aS'even better'
p2036
aS', very friendly'
p2037
ag2037
aS', all welcome'
p2038
ag2038
aS', welcome'
p2039
ag2039
aS'great'
p2040
aS', very welcome'
p2041
aS', very friendly'
p2042
aS'wonderful'
p2043
aS', full'
p2044
aS'very phenomenal warm, full'
p2045
aS'better'
p2046
aS', very good'
p2047
ag2047
aS'perfect'
p2048
aS'most welcoming'
p2049
aS'great'
p2050
aS', warm'
p2051
aS'good'
p2052
aS', very welcoming'
p2053
ag2053
aS'most delightful'
p2054
aS'wonderful'
p2055
aS', very nice'
p2056
ag2056
aS'wonderful'
p2057
aS', very helpful'
p2058
aS', super'
p2059
aS'wonderful, very welcome'
p2060
aS', interested'
p2061
aS', perfect'
p2062
ag2062
aS'excellent, perfect'
p2063
aS'wonderful, able'
p2064
aS'wonderful'
p2065
aS'great, comfortable'
p2066
aS'Fantastic'
p2067
aS'magnificent'
p2068
aS', welcome'
p2069
ag2069
aS', not surprising, popular'
p2070
aS', friendly'
p2071
ag2071
aS', very nice'
p2072
ag2072
aS'great'
p2073
aS'Very generous'
p2074
aS', very very nice'
p2075
aS'great'
p2076
aS'great'
p2077
aS'wonderful'
p2078
aS', very welcoming'
p2079
aS', very nice'
p2080
ag2080
aS'fantastic'
p2081
aS'very hospitable'
p2082
aS', very enthusiastic'
p2083
ag2083
aS'delightful'
p2084
aS'most gracious'
p2085
aS', very helpful'
p2086
aS', sure, very comfortable'
p2087
aS', sure, very comfortable'
p2088
aS', exceptional'
p2089
aS', awesome'
p2090
aS'wonderful'
p2091
aS'Great'
p2092
aS', comfortable'
p2093
aS'better'
p2094
aS'wonderful'
p2095
aS', how perfect'
p2096
aS'lovely'
p2097
aS'perfect'
p2098
aS'lovely'
p2099
aS'lovely'
p2100
aS'nice'
p2101
aS', fantastic, more, helpful'
p2102
aS', fantastic, more, helpful'
p2103
aS'great great'
p2104
aS'busy'
p2105
aS'Great'
p2106
aS', just amazing'
p2107
ag2107
aS', exceptional'
p2108
ag2108
aS'favorite'
p2109
aS'greatest'
p2110
aS'best'
p2111
aS'best'
p2112
aS'Wonderful'
p2113
aS'friendly'
p2114
aS'great'
p2115
aS'perfect'
p2116
aS'great'
p2117
aS', very accommodating'
p2118
aS'fantastic'
p2119
aS', very responsive'
p2120
aS', more gracious'
p2121
aS', great'
p2122
aS', very helpful'
p2123
aS'always amazing available'
p2124
aS', very accommodating'
p2125
aS'great'
p2126
aS', right'
p2127
aS', very easy'
p2128
aS', quick'
p2129
aS', very responsive'
p2130
aS', very good'
p2131
aS', very friendly'
p2132
aS', very friendly'
p2133
aS'very willing'
p2134
aS', sure'
p2135
aS'caring, sure'
p2136
aS', really nice'
p2137
aS', very helpful'
p2138
aS'great, very helpful'
p2139
aS', beautiful'
p2140
aS', great easy'
p2141
aS', able'
p2142
aS', very easy'
p2143
aS'great, very easy'
p2144
aS', easy'
p2145
aS', easy'
p2146
aS'fantastic'
p2147
aS'very helpful'
p2148
aS', very friendly'
p2149
aS', very friendly'
p2150
aS'great'
p2151
aS', pleasant, accessible'
p2152
aS', very nice'
p2153
aS'great'
p2154
aS', very helpful'
p2155
aS', great'
p2156
aS', very easy'
p2157
aS'very great quick'
p2158
aS', easy'
p2159
aS', easy'
p2160
aS'Great'
p2161
aS', very easy'
p2162
aS', ideal'
p2163
ag2163
aS', great'
p2164
aS'amazing'
p2165
aS', excellent'
p2166
aS', very responsive'
p2167
aS', easy'
p2168
aS', very supportive'
p2169
aS', lovely'
p2170
aS'very very pleasant accommodating'
p2171
aS'wonderful'
p2172
aS', easy'
p2173
aS'great'
p2174
aS', easy'
p2175
aS', very accommodating'
p2176
aS', extremely great'
p2177
aS', great'
p2178
aS', super accommodating'
p2179
aS'great'
p2180
aS', very pleasant'
p2181
aS'great'
p2182
aS', very quick'
p2183
aS'Very responsive, which'
p2184
aS'perfect'
p2185
aS', easy, very helpful'
p2186
aS'wonderful'
p2187
aS', very nice'
p2188
aS', nice'
p2189
aS'great'
p2190
aS'perfect'
p2191
aS'great'
p2192
aS'fantastic'
p2193
aS'amazing'
p2194
aS'fantastic'
p2195
aS', friendly'
p2196
aS'best'
p2197
aS', very inviting'
p2198
aS'great, very inviting'
p2199
aS', warm'
p2200
aS', friendly'
p2201
aS'incredibly accommodating'
p2202
aS', very friendly'
p2203
aS', very welcoming'
p2204
aS', very welcome, incredibly helpful'
p2205
aS'wonderful'
p2206
aS', more'
p2207
aS', happy'
p2208
aS', nice'
p2209
aS'amazing'
p2210
aS', right'
p2211
aS'great happy'
p2212
aS'great'
p2213
aS', very helpful prior'
p2214
aS', super'
p2215
aS', great'
p2216
aS', very easy'
p2217
aS'incredibly gracious, very easy'
p2218
aS', great'
p2219
aS', great'
p2220
aS', warm'
p2221
aS', very nice'
p2222
aS', very helpful'
p2223
aS', very nice'
p2224
aS', welcome'
p2225
aS'wonderful'
p2226
aS', most gracious'
p2227
aS'excellent'
p2228
aS', very communicative'
p2229
aS'excellent'
p2230
aS', lovely'
p2231
aS', very responsive'
p2232
aS', more Better, sure, comfortable'
p2233
aS', more Better, sure, comfortable'
p2234
aS'best, sure, comfortable'
p2235
aS'wonderful'
p2236
aS'Amazing'
p2237
aS', fantastic, best'
p2238
aS', very responsive'
p2239
aS'Great'
p2240
aS', very helpful'
p2241
aS', great'
p2242
aS', incredible'
p2243
aS', good'
p2244
aS', very responsive'
p2245
aS'very wonderful'
p2246
aS'great'
p2247
aS'warm'
p2248
aS', easy'
p2249
aS'great'
p2250
aS', easy, available'
p2251
aS'special friendly'
p2252
aS'great'
p2253
aS'excellent'
p2254
aS'fantastic'
p2255
aS', very easy responsive'
p2256
aS'absolutely very amazing friendly, very easy responsive'
p2257
aS'very great friendly communicative'
p2258
aS', very honest'
p2259
aS', very friendly'
p2260
aS', very accommodating'
p2261
aS', very attentive'
p2262
ag2262
aS'very wonderful welcoming'
p2263
aS', super'
p2264
aS'very nice'
p2265
aS', very responsive'
p2266
aS'exceptionally thoughtful'
p2267
aS'best'
p2268
aS'Wonderful flat'
p2269
aS'great'
p2270
aS'great'
p2271
aS', more'
p2272
aS', nice, open'
p2273
aS'fantastic'
p2274
aS'very accommodating, extremely easy'
p2275
aS'excellent'
p2276
aS', great'
p2277
aS'clean responsive'
p2278
aS'wonderful'
p2279
aS', very welcoming'
p2280
aS'great'
p2281
aS', nice'
p2282
aS'lovely'
p2283
aS', strong better'
p2284
aS'excellent'
p2285
aS'such lovely'
p2286
aS'excellent'
p2287
aS', charming'
p2288
aS'excellent, responsive'
p2289
aS', sure'
p2290
aS'amazing, sure'
p2291
aS', very warm'
p2292
aS'wonderful'
p2293
aS', very easy'
p2294
aS'extremely kind'
p2295
aS'very caring, prepared'
p2296
aS', available'
p2297
aS'great'
p2298
aS', more helpful'
p2299
aS', quite busy'
p2300
ag2300
aS', very welcome'
p2301
aS'fantastic, very welcome'
p2302
aS'wonderful'
p2303
aS'absolutely amazing'
p2304
aS'much more'
p2305
aS'much more'
p2306
aS', easy'
p2307
ag2307
aS'very good'
p2308
aS', very thoughtful'
p2309
aS', fabulous'
p2310
aS', which great'
p2311
ag2311
aS', very helpful'
p2312
aS', delightful'
p2313
aS', super'
p2314
aS'very courteous accommodating'
p2315
aS'amazing'
p2316
aS'best'
p2317
aS', free'
p2318
aS'very gracious'
p2319
aS'Nice'
p2320
aS', very accommodating'
p2321
aS', very nice'
p2322
aS'great'
p2323
aS', very accommodating'
p2324
aS', awesome'
p2325
aS', friendly'
p2326
aS'awesome'
p2327
aS', very friendly'
p2328
aS', friendly'
p2329
aS', easy'
p2330
aS', very easy'
p2331
aS', very helpful'
p2332
aS'very thoughtful'
p2333
aS', always available'
p2334
aS'amazing, always available'
p2335
aS'great'
p2336
aS'great'
p2337
aS', very helpful'
p2338
aS'very nice'
p2339
aS', fantastic'
p2340
aS', fantastic'
p2341
aS'great'
p2342
aS', great'
p2343
aS'great'
p2344
aS'great'
p2345
aS'very nice'
p2346
aS'fantastic'
p2347
aS', very available'
p2348
aS', very welcoming'
p2349
aS'wonderful'
p2350
aS'great'
p2351
aS', very responsive'
p2352
aS', really easy'
p2353
aS'wonderful helpful'
p2354
aS', most welcome'
p2355
aS', great'
p2356
aS', very easy'
p2357
aS', very communicative'
p2358
aS'great'
p2359
aS', wonderful, quick'
p2360
aS'awesome'
p2361
aS'such great'
p2362
aS'very such pleasant friendly'
p2363
aS'wonderful'
p2364
aS', really easy'
p2365
aS', very friendly'
p2366
aS', easy'
p2367
aS', very helpful'
p2368
ag2368
aS', excellent'
p2369
ag2369
aS'Fantastic'
p2370
aS'fantastic'
p2371
aS'incredible'
p2372
aS', very good, sure, ok'
p2373
aS', very responsive'
p2374
ag2374
aS', incredibly helpful'
p2375
ag2375
aS'friendly'
p2376
aS'friendly'
p2377
aS', very very quick helpful'
p2378
aS', apt simple'
p2379
aS', great'
p2380
aS', quick'
p2381
aS', very welcome'
p2382
aS'lovely'
p2383
aS'great thoughtful'
p2384
aS'wonderful'
p2385
aS', very responsive'
p2386
aS'Such lovely'
p2387
aS', easy'
p2388
aS', good'
p2389
aS', extremely friendly'
p2390
aS', very helpful'
p2391
aS', very welcome'
p2392
ag2392
aS', very flexible'
p2393
aS'great'
p2394
aS'great'
p2395
aS'great'
p2396
aS'Awesome'
p2397
aS'wonderful'
p2398
aS'lovely'
p2399
aS'lovely'
p2400
aS'great available'
p2401
aS', very accommodating'
p2402
ag2402
aS', completely amenable'
p2403
ag2403
aS', wonderful'
p2404
ag2404
aS', available, very helpful'
p2405
aS', great, with-'
p2406
aS', great, with-'
p2407
aS'lovely'
p2408
aS', absolutely breathtaking'
p2409
aS'very great helpful'
p2410
aS', very happy'
p2411
aS'very Friendly accommodating'
p2412
aS'great'
p2413
aS'fantastic'
p2414
aS', complete'
p2415
aS', very organized'
p2416
aS', very accommodating'
p2417
aS'perfect'
p2418
aS'most wonderful helpful'
p2419
aS'lovely'
p2420
aS'very gracious'
p2421
aS', very helpful'
p2422
aS'delightful'
p2423
aS'Lovely'
p2424
aS'fantastic'
p2425
aS'perfect'
p2426
aS', totally available'
p2427
ag2427
aS', very helpful'
p2428
ag2428
aS', amazing'
p2429
aS', really flexible'
p2430
ag2430
aS', extremely welcome'
p2431
aS', wonderful'
p2432
aS', very nice'
p2433
ag2433
aS', that great'
p2434
aS'charming'
p2435
aS'Great'
p2436
aS', very welcoming'
p2437
aS'excellent'
p2438
aS', very accommodating'
p2439
aS'lovely'
p2440
aS'lovely'
p2441
aS', very welcome'
p2442
aS', lovely'
p2443
ag2443
aS'lovely'
p2444
aS', very welcome'
p2445
aS', awesome'
p2446
ag2446
aS', fantastic'
p2447
aS', fantastic'
p2448
ag2448
aS'wonderful helpful'
p2449
aS', easy'
p2450
ag2450
aS'amazing'
p2451
aS'very clean'
p2452
aS', great'
p2453
aS'fabulous'
p2454
aS', easy'
p2455
aS', very responsive'
p2456
aS', very responsive'
p2457
aS', great'
p2458
aS'very excellent responsive'
p2459
aS'perfect'
p2460
aS'very considerate'
p2461
aS', very helpful'
p2462
aS'fabulous'
p2463
aS'great'
p2464
aS'wonderful'
p2465
aS'lovely'
p2466
aS'wonderful'
p2467
aS'extremely lovely warm'
p2468
aS', wonderful'
p2469
aS', great'
p2470
aS'wonderful'
p2471
aS'fantastic'
p2472
aS', perfect'
p2473
ag2473
aS', very responsible'
p2474
aS', ready'
p2475
aS'great'
p2476
aS', extremely kind'
p2477
aS'lovely'
p2478
aS', great'
p2479
ag2479
aS'very caring, most welcome'
p2480
aS', wonderful'
p2481
aS'fabulous'
p2482
aS'great'
p2483
aS'very helpful'
p2484
aS', amazing'
p2485
aS'WONDERFUL'
p2486
aS', very wonderful'
p2487
aS'great'
p2488
aS', apt beautiful'
p2489
aS'gracious, apt beautiful'
p2490
aS'very accommodating'
p2491
aS', nice'
p2492
aS'most gracious'
p2493
aS'warm, very comfortable'
p2494
aS'wonderful'
p2495
aS'great'
p2496
aS'great'
p2497
aS'best'
p2498
aS'nice'
p2499
aS'very informative'
p2500
aS'very responsive'
p2501
aS'Great'
p2502
aS'great'
p2503
aS', absolutely lovely'
p2504
ag2504
aS'most incredible'
p2505
aS'Wonderful Courteous'
p2506
aS'gracious professional'
p2507
aS', great'
p2508
ag2508
aS'very wonderful thoughtful'
p2509
aS'fantastic'
p2510
aS', wonderful'
p2511
aS', very helpful'
p2512
aS', lovely'
p2513
ag2513
ag2513
aS', wonderful'
p2514
aS'great'
p2515
aS'great'
p2516
aS', great'
p2517
ag2517
aS'always great approachable'
p2518
aS', sure'
p2519
aS'amazing, sure'
p2520
aS'very considerate warm'
p2521
aS'most helpful patient'
p2522
aS', very accommodating'
p2523
aS'lovely, that'
p2524
aS'very attentive'
p2525
aS'great'
p2526
aS', warm'
p2527
aS'excellent'
p2528
aS', very friendly'
p2529
aS', easy'
p2530
aS', great'
p2531
aS'very attentive'
p2532
aS', easy'
p2533
aS', absolutely incredible'
p2534
aS', easy, very flexible'
p2535
aS'Very convenient, very clean'
p2536
aS'Very convenient, very clean'
p2537
aS'wonderful'
p2538
aS', very responsive'
p2539
aS', nice'
p2540
aS', very responsive'
p2541
aS', clean stocked'
p2542
aS'apt'
p2543
aS', very considerate, sure'
p2544
aS', great'
p2545
aS'amazing'
p2546
aS', super helpful'
p2547
aS'Nice'
p2548
aS'friendly'
p2549
aS', awesome'
p2550
aS', wonderful'
p2551
aa(lp2552
S'great'
p2553
aS'great'
p2554
aS'nice'
p2555
aS'Great'
p2556
aS'Excellent'
p2557
aS'very convenient'
p2558
aS'great'
p2559
aS'Great'
p2560
aS'fantastic'
p2561
aS'Good close'
p2562
aS', fantastic'
p2563
aS'fabulous'
p2564
aS'great'
p2565
aS'Great'
p2566
aS'cool energetic'
p2567
aS'spectacular'
p2568
aS', perfect'
p2569
aS'Great'
p2570
aS', perfect'
p2571
aS'wonderful'
p2572
aS', perfect'
p2573
aS', amazing'
p2574
aS'nice'
p2575
aS', better'
p2576
aS'excellent'
p2577
aS', stellar, close'
p2578
aS', excellent'
p2579
aS'great'
p2580
aS'better'
p2581
aS', amazing'
p2582
aS', perfect'
p2583
aS', perfect'
p2584
aS'Great short'
p2585
aS', awesome'
p2586
aS', fantastic'
p2587
aS'great'
p2588
aS', perfect'
p2589
aS'such nice'
p2590
aS'great'
p2591
aS', absolutely perfect'
p2592
aS'fantastic'
p2593
aS'Great'
p2594
aS'great'
p2595
aS', fantastic'
p2596
aS'great'
p2597
aS'Fantastic'
p2598
aS'excellent'
p2599
aS', that easy'
p2600
aS'Great'
p2601
aS'great'
p2602
aS', great'
p2603
aS', good, there safe'
p2604
aS'amazing'
p2605
aS'wonderful'
p2606
aS'Fantastic'
p2607
aS', fantastic'
p2608
aS'great'
p2609
aS'awesome'
p2610
aS'fabulous'
p2611
aS'wonderful'
p2612
aS', fantastic'
p2613
aS'most central'
p2614
aS'perfect'
p2615
aS', great'
p2616
aS'Great'
p2617
aS', ideal'
p2618
aS'beautiful'
p2619
aS'fantastic close'
p2620
aS'Wonderful'
p2621
aS'awesome'
p2622
aS'perfect'
p2623
aS', amazing close'
p2624
aS'awesome'
p2625
aS'great'
p2626
aS'apt good'
p2627
aS'great'
p2628
aS'great'
p2629
aS', great'
p2630
aS'great'
p2631
aS'great'
p2632
aS', really good'
p2633
aS'Good'
p2634
aS'Great'
p2635
aS'Excellent'
p2636
aS'Great'
p2637
aS'awesome'
p2638
aS'Great'
p2639
aS'Great'
p2640
aS', great'
p2641
aS'Great'
p2642
aS'clean'
p2643
aS'Great'
p2644
aS'Lovely'
p2645
aS'best'
p2646
aS', perfect'
p2647
aS'Good'
p2648
aS', incredible'
p2649
aS', perfect, able'
p2650
aS', better'
p2651
aS', better'
p2652
aS', perfect'
p2653
aS'such amazing'
p2654
aS'Great'
p2655
aS', perfect'
p2656
aS'great'
p2657
aS'fantastic close'
p2658
aS', perfect'
p2659
aS', perfect'
p2660
aS'Wonderful, great'
p2661
aS', ideal'
p2662
aS', very convenient'
p2663
aS'Great flat'
p2664
aS'perfect'
p2665
aS', great'
p2666
aS'fantastic'
p2667
aS', better'
p2668
aS'great'
p2669
aS'Great accessible'
p2670
aS'Good'
p2671
aS'perfect'
p2672
aS'great'
p2673
aS'great'
p2674
aS'good'
p2675
aS'Great nice'
p2676
aS'great'
p2677
aS'great'
p2678
aS'Great'
p2679
aS'excellent'
p2680
aS', excellent'
p2681
aS', great'
p2682
aS'great'
p2683
aS', great'
p2684
aS'great'
p2685
aS'Great'
p2686
aS'Great'
p2687
aS'best'
p2688
aS'Beautiful'
p2689
aS', great'
p2690
aS'excellent'
p2691
aS'Great'
p2692
aS'perfect'
p2693
aS'great'
p2694
aS', fantastic'
p2695
aS', amazing'
p2696
aS', amazing'
p2697
aS'Great'
p2698
aS'amazing'
p2699
aS'Great'
p2700
aS'easy'
p2701
aS'Great'
p2702
aS'great'
p2703
aS'fantastic'
p2704
aS'great'
p2705
aS', good'
p2706
aS'perfect'
p2707
aS'very good'
p2708
aS'very Great comfortable'
p2709
aS'Great'
p2710
aS'great'
p2711
aS'wonderful'
p2712
aS'Superb Nice'
p2713
aS'Great, very safe'
p2714
aS', wonderful'
p2715
aS'Great'
p2716
aS', great'
p2717
aS'amazing'
p2718
aS', excellent'
p2719
aS'Beautiful convenient'
p2720
aS'Great'
p2721
aS'Such awesome'
p2722
aS'Lovely'
p2723
aS'Great'
p2724
aS'Great'
p2725
aS', absolutely great'
p2726
aS'great'
p2727
aS'Great great'
p2728
aS'perfect great'
p2729
aS'perfect easy'
p2730
aS', very safe'
p2731
aS'very convenient'
p2732
aS'perfect'
p2733
aS'such fabulous'
p2734
aS', more perfect, close'
p2735
aS'perfect'
p2736
aS'great'
p2737
aS'great'
p2738
aS'excellent'
p2739
aS', perfect'
p2740
aS', amazing close'
p2741
aS'perfect'
p2742
aS'wonderful'
p2743
aS'excellent'
p2744
aS'excellent'
p2745
aS'great'
p2746
aS'perfect'
p2747
aS'private peaceful'
p2748
aS', excellent, close'
p2749
aS'lovely'
p2750
aS', perfect'
p2751
aS', absolutely perfect'
p2752
aS'safe close'
p2753
aS'very Great comfortable'
p2754
aS'best'
p2755
aS', great, very close'
p2756
aS'great'
p2757
aS'Great'
p2758
aS', also outstanding'
p2759
aS'clean'
p2760
aS'Great'
p2761
aS'great'
p2762
aS'great'
p2763
aS', perfect'
p2764
aS'great convenient'
p2765
aS'Great'
p2766
aS'clean great'
p2767
aS'great'
p2768
aS'great'
p2769
aS'great'
p2770
aS'very good'
p2771
aS', great'
p2772
aS'Amazing'
p2773
aS', fantastic'
p2774
aS'fantastic'
p2775
aS'ideal'
p2776
aS'perfect'
p2777
aS', great'
p2778
aS'Good'
p2779
aS'great'
p2780
aS'Great'
p2781
aS'great'
p2782
aS'great'
p2783
aS', ideal'
p2784
aS'great'
p2785
aS'really great perfect'
p2786
aS'great'
p2787
aS'best possible'
p2788
aS'good'
p2789
aS', very safe, nice'
p2790
aS', fantastic'
p2791
aS'great'
p2792
aS'great'
p2793
aS'such beautiful'
p2794
aS'perfect'
p2795
aS'perfect'
p2796
aS'great'
p2797
aS'great'
p2798
aS', able'
p2799
aS'great'
p2800
aS'fantastic'
p2801
aS', great'
p2802
aS'perfect'
p2803
aS', nice'
p2804
aS'very good'
p2805
aS'perfect'
p2806
aS', ideal'
p2807
aS'good'
p2808
aS'cozy great'
p2809
aS', amazing'
p2810
aS', amazing'
p2811
aS'perfect'
p2812
aS'excellent'
p2813
aS'outstanding'
p2814
aS', excellent'
p2815
aS', perfect'
p2816
aS', great'
p2817
aS', absolutely fantastic, close'
p2818
aS', wonderful'
p2819
aS'wonderful convenient'
p2820
aS'simply excellent'
p2821
aS', great'
p2822
aS', fantastic'
p2823
aS'great'
p2824
aS'Great close'
p2825
aS'great'
p2826
aS'awesome'
p2827
aS'great, fantastically stocked, spacious'
p2828
aS'beautiful'
p2829
aS'great'
p2830
aS'Great'
p2831
aS'great'
p2832
aS', excellent'
p2833
aS'Great'
p2834
aS'great'
p2835
aS'great bright'
p2836
aS', any better'
p2837
aS', perfect'
p2838
aS'attractive'
p2839
aS'very convenient'
p2840
aS'fairly close accessible'
p2841
aS'perfect'
p2842
aS', great'
p2843
aS'best'
p2844
aS', stellar'
p2845
aS'great'
p2846
aS'great walkable'
p2847
aS', perfect'
p2848
aS'excellent'
p2849
aS'awesome'
p2850
aS'Great'
p2851
aS', great'
p2852
aS'What great'
p2853
aS', perfect'
p2854
aS'great quiet'
p2855
aS'really good'
p2856
aS'great'
p2857
aS'great'
p2858
aS'Great'
p2859
aS', great'
p2860
aS', ideal'
p2861
aS'great'
p2862
aS', perfect'
p2863
aS', very convenient'
p2864
aS'great'
p2865
aS'easily accessible'
p2866
aS'Excellent'
p2867
aS'Great'
p2868
aS'great'
p2869
aS'ideal'
p2870
aS'Great'
p2871
aS', fantastic'
p2872
aS'great'
p2873
aS'fabulous'
p2874
aS'fabulous, that'
p2875
aS'great'
p2876
aS'Great'
p2877
aS'great'
p2878
aS', perfect'
p2879
aS'Great'
p2880
aS'great'
p2881
aS'great'
p2882
aS'Super comfortable'
p2883
aS'Good'
p2884
aS'Great'
p2885
aS'perfect'
p2886
aS'great'
p2887
aS'super'
p2888
aS'great'
p2889
aS'great'
p2890
aS'Great'
p2891
aS'great'
p2892
aS'perfect'
p2893
aS'great'
p2894
aS', phenomenal'
p2895
aS'Amazing'
p2896
aS'extremely Great clean'
p2897
aS'Great'
p2898
aS'great'
p2899
aS'great'
p2900
aS'great'
p2901
aS', really good'
p2902
aS', awesome, effortless'
p2903
aS'awesome'
p2904
aS'fantastic'
p2905
aS'Great'
p2906
aS'Great'
p2907
aS', perfect'
p2908
aS', wonderful'
p2909
aS'perfect'
p2910
aS'perfect central'
p2911
aS'perfect'
p2912
aS'great'
p2913
aS'good'
p2914
aS', great'
p2915
aS'perfect'
p2916
aS'great'
p2917
aS'good'
p2918
aS'Great'
p2919
aS'charming great'
p2920
aS', very convenient, very easy'
p2921
aS', amazing'
p2922
aS', fantastic'
p2923
aS', great'
p2924
aS'Great'
p2925
aS'great'
p2926
aS'Great'
p2927
aS'Great'
p2928
aS'good'
p2929
aS'Great'
p2930
aS', good'
p2931
aS'great'
p2932
aS'fantastic'
p2933
aS'very fantastic'
p2934
aS'Great'
p2935
aS'perfect'
p2936
aS', great'
p2937
aS'Great'
p2938
aS'very convenient'
p2939
aS'perfect'
p2940
aS'perfect, super comfortable'
p2941
aS', great'
p2942
aS'very convenient'
p2943
aS'Great'
p2944
aS'great'
p2945
aS'Amazing'
p2946
aS'Great'
p2947
aS', great'
p2948
aS'Amazing'
p2949
aS', perfect'
p2950
aS'very enjoyable'
p2951
aS'fantastic, that'
p2952
aS'good'
p2953
aS'great'
p2954
aS'great lively'
p2955
aS'great'
p2956
aS'Excellent'
p2957
aS'Very clean'
p2958
aS'great, able'
p2959
aS'great, that'
p2960
aS'perfect'
p2961
aS'nice'
p2962
aS'Fantastic'
p2963
aS'Nice, very convenient'
p2964
aS'very Fantastic comfortable'
p2965
aS'Great'
p2966
aS'great'
p2967
aS', great'
p2968
aS'Great'
p2969
aS'Great'
p2970
aS', comfortable'
p2971
aS'ideal'
p2972
aS', perfect'
p2973
aS'perfect'
p2974
aS', great'
p2975
aS'Incredible spacious'
p2976
aS'Incredible'
p2977
aS'perfect'
p2978
aS', best'
p2979
aS'Great'
p2980
aS'fantastic'
p2981
aS'Very accommodating great'
p2982
aS'great'
p2983
aS'wonderful'
p2984
aS'perfect'
p2985
aS'great'
p2986
aS'great safe'
p2987
aS'flat, perfect'
p2988
aS'spotless great'
p2989
aS'Great best'
p2990
aS'great'
p2991
aS'Great'
p2992
aS'very tidy'
p2993
aS'Great'
p2994
aS'perfect convenient'
p2995
aS', great'
p2996
aS', perfect'
p2997
aS'best'
p2998
aS'Excellent'
p2999
aS'great, clean'
p3000
aS', excellent quiet, close'
p3001
aS'best'
p3002
aS', great'
p3003
aS', great closed'
p3004
aS'Amazing'
p3005
aS', perfect'
p3006
aS'perfect'
p3007
aS'best possible'
p3008
aS'Fantastic'
p3009
aS'better, that'
p3010
aS'great close'
p3011
aS'great'
p3012
aS'fantastic'
p3013
aS', perfect'
p3014
aS'perfect'
p3015
aS'perfect'
p3016
aS'stellar'
p3017
aS'Amazing'
p3018
aS'right'
p3019
aS'great'
p3020
aS'great'
p3021
aS'Fantastic'
p3022
aS', awesome'
p3023
aS', just perfect'
p3024
aS', fantastic'
p3025
aS'wonderful'
p3026
aS'very convenient'
p3027
aS'fantastic'
p3028
aS'perfect'
p3029
aS', just perfect'
p3030
aS'Great'
p3031
aS', great'
p3032
aS', good'
p3033
aS', fantastic'
p3034
aS'better'
p3035
aS'wonderfully convenient safe'
p3036
aS', perfect'
p3037
aS'great'
p3038
aS'Great'
p3039
aS'Great'
p3040
aS'perfect'
p3041
aS'great'
p3042
aS'great'
p3043
aS'great'
p3044
aS'Great close'
p3045
aS'Great'
p3046
aS'Excellent'
p3047
aS'Great'
p3048
aS'ideal'
p3049
aS'best possible'
p3050
aS'good'
p3051
aS', great'
p3052
aS'Great'
p3053
aS'great'
p3054
aS'perfect'
p3055
aS'perfect'
p3056
aS', perfect'
p3057
aS', nice'
p3058
aS'Excellent'
p3059
aS'better'
p3060
aS', excellent'
p3061
aS'great'
p3062
aS'GREAT'
p3063
aS'awesome'
p3064
aS'great'
p3065
aS', absolutely wonderful'
p3066
aS'best'
p3067
aS'great'
p3068
aS', perfect'
p3069
aS'perfect'
p3070
aS'Great'
p3071
aS', perfect'
p3072
aS', great'
p3073
aS', superb, very easy'
p3074
aS'Fabulous'
p3075
aS', more perfect'
p3076
aS', perfect'
p3077
aS'perfect'
p3078
aS'Fantastic'
p3079
aS', perfect'
p3080
aS', more perfect'
p3081
aS', amazing'
p3082
aS'excellent'
p3083
aS'Great'
p3084
aS'excellent'
p3085
aS'Great'
p3086
aS'Great accessible'
p3087
aS'great'
p3088
aS', perfect'
p3089
aS'great'
p3090
aS', great'
p3091
aS'Great easy'
p3092
aS', great'
p3093
aS'Fantastic'
p3094
aS', ever best'
p3095
aS', great'
p3096
aS', perfect'
p3097
aS', amazing'
p3098
aS'great'
p3099
aS', better'
p3100
aS'great'
p3101
aS'Wonderful'
p3102
aS', great'
p3103
aS'great'
p3104
aS'most delightful'
p3105
aS', just perfect'
p3106
aS', great'
p3107
aS'What great'
p3108
aS'great'
p3109
aS', safe'
p3110
aS', perfect'
p3111
aS'best'
p3112
aS'perfect'
p3113
aS', perfect'
p3114
aS', marvelous'
p3115
aS'Fantastic'
p3116
aS'great'
p3117
aS'great'
p3118
aS'ideal'
p3119
aS'excellent'
p3120
aS'perfect'
p3121
aS', brilliant'
p3122
aS'great right'
p3123
aS'perfect'
p3124
aS'very convenient'
p3125
aS', great'
p3126
aS'great'
p3127
aS'perfect'
p3128
aS', better'
p3129
aS'more perfect spacious'
p3130
aS'Great'
p3131
aS'charming great'
p3132
aS'Great'
p3133
aS'Great'
p3134
aS'perfect'
p3135
aS'very convenient'
p3136
aS', absolutely perfect'
p3137
aS', perfect'
p3138
aS', amazing'
p3139
aS'Fantastic'
p3140
aS', great'
p3141
aS'ideal'
p3142
aS'best'
p3143
aS'great'
p3144
aS'awesome'
p3145
aS'Amazing'
p3146
aS', great'
p3147
aS'Amazing'
p3148
aS'perfect'
p3149
aS'amazing'
p3150
aS'Great'
p3151
aS'amazing'
p3152
aS'wise'
p3153
aS', fantastic'
p3154
aS', wonderful'
p3155
aS'such great'
p3156
aS', great'
p3157
aS'fantastic'
p3158
aS'great'
p3159
aS'well Great decorated'
p3160
aS', especially nice'
p3161
aS', perfect'
p3162
aS'great'
p3163
aS'very convenient'
p3164
aS'Amazing'
p3165
aS', beautiful quiet'
p3166
aS'Great, that'
p3167
aS', unreal, nice'
p3168
aS'perfect'
p3169
aS'Great walkable'
p3170
aS'Fantastic'
p3171
aS'Great'
p3172
aS'fantastic'
p3173
aS', perfect'
p3174
aS'Great'
p3175
aS'Great'
p3176
aS'perfect'
p3177
aS', ideal'
p3178
aS', right'
p3179
aS'great'
p3180
aS'absolutely fantastic'
p3181
aS', ideal'
p3182
aS'amazing'
p3183
aS', better'
p3184
aS'Great'
p3185
aS', better'
p3186
aS'great'
p3187
aS'superb'
p3188
aS'great close'
p3189
aS', very good'
p3190
aS'great'
p3191
aS', perfect'
p3192
aS'Great'
p3193
aS', amazing'
p3194
aS', perfect'
p3195
aS'Great'
p3196
aS'great'
p3197
aS', fantastic'
p3198
aS', great'
p3199
aS', great'
p3200
aS'fantastic'
p3201
aS', excellent'
p3202
aS'Great'
p3203
aS'Good close'
p3204
aS'What great'
p3205
aS'great'
p3206
aS'Great'
p3207
aS', great'
p3208
aS'perfect'
p3209
aS', excellent, very clean'
p3210
aS', fantastic comfortable'
p3211
aS'great'
p3212
aS', great'
p3213
aS', perfect'
p3214
aS', absolutely perfect'
p3215
aS'great'
p3216
aS'fantastic'
p3217
aS', great'
p3218
aS', perfect'
p3219
aS'Great'
p3220
aS', excellent'
p3221
aS'great'
p3222
aS'clean great'
p3223
aS'great'
p3224
aS'perfect'
p3225
aS', perfect'
p3226
aS'great'
p3227
aS'best'
p3228
aS', perfect'
p3229
aS'wonderfully Fantastic friendly'
p3230
aS'Great'
p3231
aS'easily accessible'
p3232
aS'wonderful'
p3233
aS', great'
p3234
aS', absolutely perfect'
p3235
aS', very convenient'
p3236
aS'great'
p3237
aS'Great'
p3238
aS'best'
p3239
aS'Great'
p3240
aS', excellent'
p3241
aS', fantastic'
p3242
aS'safe'
p3243
aS', more perfect'
p3244
aS'great'
p3245
aS', great'
p3246
aS', perfect'
p3247
aS'perfect'
p3248
aS'wonderful'
p3249
aS'excellent'
p3250
aS'excellent'
p3251
aS'excellent'
p3252
aS'very wonderful good easy'
p3253
aS'fantastic'
p3254
aS', fantastic'
p3255
aS'fantastic'
p3256
aS', perfect'
p3257
aS', very good'
p3258
aS'very Great comfy'
p3259
aS', perfect'
p3260
aS', great'
p3261
aS', very ideal easy'
p3262
aS', great'
p3263
aS'Great'
p3264
aS'perfect'
p3265
aS'perfect'
p3266
aS', very good close'
p3267
aS'best'
p3268
aS', fantastic'
p3269
aS', more perfect'
p3270
aS', perfect'
p3271
aS', great'
p3272
aS', perfect'
p3273
aS'very great close'
p3274
aS', great right'
p3275
aS', perfect'
p3276
aS', very good'
p3277
aS', great'
p3278
aS'best close'
p3279
aS', perfect'
p3280
aS'great'
p3281
aS', great'
p3282
aS', perfect'
p3283
aS'great'
p3284
aS', perfect'
p3285
aS'good'
p3286
aS', amazing'
p3287
aS', great'
p3288
aS', very good'
p3289
aS'perfect close'
p3290
aS', nice'
p3291
aS', very accessible'
p3292
aS'What beautiful'
p3293
aS', great'
p3294
aS', excellent'
p3295
aS'warm excellent'
p3296
aS', incredible'
p3297
aS', perfect, welcome'
p3298
aS'great'
p3299
aS', fabulous'
p3300
aS', perfect'
p3301
aS'fantastic'
p3302
aS'superb'
p3303
aS'great'
p3304
aS'Amazing'
p3305
aS', perfect'
p3306
aS', perfect'
p3307
aS', great'
p3308
aS', very convenient'
p3309
aS'Nice'
p3310
aS'great'
p3311
aS'very safe'
p3312
aS', better'
p3313
aS'Good'
p3314
aS'Home Great nice'
p3315
aS'Amazing'
p3316
aS'great'
p3317
aS'great'
p3318
aS'Cute'
p3319
aS'Great'
p3320
aS', perfect'
p3321
aS', great'
p3322
aS', perfect'
p3323
aS'Great'
p3324
aS', great'
p3325
aS'good'
p3326
aS', great'
p3327
aS'fantastic clean'
p3328
aS'ideal'
p3329
aS'very Excellent close'
p3330
aS'Amazing'
p3331
aS'wonderful'
p3332
aS', great'
p3333
aS'safe'
p3334
aS', very close'
p3335
aS'perfect'
p3336
aS'Great'
p3337
aS'absolutely perfect'
p3338
aS'great'
p3339
aS'great'
p3340
aS'Great'
p3341
aS'Great'
p3342
aS'perfect'
p3343
aS', fantastic, very close'
p3344
aS'great'
p3345
aS', better'
p3346
aS'perfect'
p3347
aS'great, comfortable'
p3348
aS'great'
p3349
aS'great'
p3350
aS'Great'
p3351
aS'great'
p3352
aS', good'
p3353
aS'good'
p3354
aS'ideal'
p3355
aS', great'
p3356
aS'excellent'
p3357
aS'Great central'
p3358
aS'great'
p3359
aS', also good'
p3360
aS'great'
p3361
aS', great'
p3362
aS', perfect'
p3363
aS', absolutely perfect'
p3364
aS', excellent, easy'
p3365
aS'modern great'
p3366
aS'fantastic'
p3367
aS', perfect'
p3368
aS'perfect'
p3369
aS'perfect'
p3370
aS'Great'
p3371
aS', exceptional'
p3372
aS'great'
p3373
aS'perfect'
p3374
aS'ideal'
p3375
aS', just perfect, great'
p3376
aS', great'
p3377
aS'better'
p3378
aS', perfect'
p3379
aS', great'
p3380
aS'Great, very easy'
p3381
aS'great'
p3382
aS'Great'
p3383
aS', pretty close'
p3384
aS'great'
p3385
aS', great'
p3386
aS'great'
p3387
aS', fantastic'
p3388
aS'Wonderful'
p3389
aS', perfect'
p3390
aS', awesome'
p3391
aS'great'
p3392
aS', great'
p3393
aS'Great easy'
p3394
aS'great comfortable'
p3395
aS'great'
p3396
aS', great'
p3397
aS'good'
p3398
aS'Fantastic'
p3399
aS'great'
p3400
aS'great'
p3401
aS', amazing safe'
p3402
aS', great'
p3403
aS', excellent'
p3404
aS'very Great nice'
p3405
aS'great'
p3406
aS'Great'
p3407
aS'Good'
p3408
aS'fantastic'
p3409
aS'great'
p3410
aS'great'
p3411
aS', wonderful'
p3412
aS'perfect'
p3413
aS', very good'
p3414
aS'Fabulous'
p3415
aS'great'
p3416
aS'Fantastic'
p3417
aS'Great'
p3418
aS'great'
p3419
aS'great'
p3420
aS'great'
p3421
aS', fantastic'
p3422
aS'awesome'
p3423
aS'great'
p3424
aS'great'
p3425
aS'Great clean'
p3426
aS'great'
p3427
aS'wonderful'
p3428
aS'great'
p3429
aS'perfect'
p3430
aS'Good safe'
p3431
aS'perfect'
p3432
aS'great'
p3433
aS'great'
p3434
aS', amazing'
p3435
aS', great'
p3436
aS'great'
p3437
aS', fantastic'
p3438
aS', ideal'
p3439
aS'wonderful'
p3440
aS'great'
p3441
aS'wonderful'
p3442
aS', just perfect, able'
p3443
aS'great'
p3444
aS'perfect'
p3445
aS'Good quiet'
p3446
aS', more perfect'
p3447
aS'Perfect'
p3448
aS', great'
p3449
aS'outstanding'
p3450
aS'very convenient, best'
p3451
aS', perfect'
p3452
aS', amazing'
p3453
aS'ideal'
p3454
aS', amazing'
p3455
aS'Good'
p3456
aS'super convenient'
p3457
aS', simply fantastic'
p3458
aS', amazing'
p3459
aS'Great'
p3460
aS', just perfect'
p3461
aS', easy'
p3462
aS'perfect'
p3463
aS'lovely'
p3464
aS'very great'
p3465
aS'great'
p3466
aS', phenomenally convenient'
p3467
aS', nice'
p3468
aS'great quiet'
p3469
aS'amazing'
p3470
aS', perfect'
p3471
aS', ideal'
p3472
aS', great'
p3473
aS', absolutely perfect'
p3474
aS'great'
p3475
aS'great'
p3476
aS', good'
p3477
aS', great'
p3478
aS', more perfect'
p3479
aS', really great'
p3480
aS', fantastic'
p3481
aS', amazing'
p3482
aS', great'
p3483
aS', very safe'
p3484
aS'great'
p3485
aS', fantastic'
p3486
aS'great'
p3487
aS', excellent'
p3488
aS', much better'
p3489
aS'amazing'
p3490
aS', great'
p3491
aS'Great Walkable'
p3492
aS'great'
p3493
aS'Great'
p3494
aS'perfect'
p3495
aS'wonderful'
p3496
aS', great'
p3497
aS'great'
p3498
aS'Great'
p3499
aS'great'
p3500
aS', ideal'
p3501
aS'great'
p3502
aS'well organized comfortable'
p3503
aS', perfect'
p3504
aS', amazing'
p3505
aS', best'
p3506
aS', awesome'
p3507
aS', great, close'
p3508
aS', perfect'
p3509
aS'Good good'
p3510
aS'excellent'
p3511
aS'beautiful residential'
p3512
aS'great'
p3513
aS'great'
p3514
aS'Nice'
p3515
aS', excellent, very flat clean'
p3516
aS', perfect'
p3517
aS'ideal'
p3518
aS', how accessible'
p3519
aS'great'
p3520
aS'great'
p3521
aS', great'
p3522
aS'great'
p3523
aS', absolutely perfect'
p3524
aS'perfect'
p3525
aS', perfect'
p3526
aS', perfect'
p3527
aS', really good'
p3528
aS', safe'
p3529
aS', better'
p3530
aS'great'
p3531
aS', incredible-'
p3532
aS', perfect'
p3533
aS', very amazing close'
p3534
aS'Great'
p3535
aS', excellent'
p3536
aS'fantastic'
p3537
aS', perfect, very easy'
p3538
aS'perfect'
p3539
aS', ideal'
p3540
aS', very convenient'
p3541
aS'perfect'
p3542
aS', more perfect'
p3543
aS'great'
p3544
aS', ideal'
p3545
aS'perfect'
p3546
aS'ideal'
p3547
aS'ideal'
p3548
aS'clean, perfect'
p3549
aS', better'
p3550
aS', very good'
p3551
aS'Great'
p3552
aS', perfect'
p3553
aS'Great'
p3554
aS'Great'
p3555
aS'great'
p3556
aS'extremely perfect close'
p3557
aS'better'
p3558
aS'Great'
p3559
aS', perfect'
p3560
aS'Good'
p3561
aS', safe'
p3562
aS'wonderful great'
p3563
aS'Safe'
p3564
aS', fantastic'
p3565
aS', that peaceful'
p3566
aS'Very Great clean'
p3567
aS', amazing'
p3568
aS'perfect close'
p3569
aS'Great'
p3570
aS'Great'
p3571
aS', fantastic'
p3572
aS', fantastic'
p3573
aS'great'
p3574
aS', amazing'
p3575
aS', easy'
p3576
aS'Great'
p3577
aS', amazing, very safe'
p3578
aS'perfect'
p3579
aS'Great'
p3580
aS'perfect'
p3581
aS'amazing, flat'
p3582
aS'great'
p3583
aS'Good clean'
p3584
aS'very Fantastic large'
p3585
aS', great'
p3586
aS'such nice'
p3587
aS', great'
p3588
aS'amazing'
p3589
aS', excellent'
p3590
aS'perfect'
p3591
aS', ideal'
p3592
aS'beautiful'
p3593
aS', perfect'
p3594
aS'amazing'
p3595
aS'quiet, perfect, that'
p3596
aS'Excellent'
p3597
aS'incredible'
p3598
aS'amazing'
p3599
aS', excellent'
p3600
aS', absolutely fantastic'
p3601
aS', great'
p3602
aS', just perfect'
p3603
aS'perfect'
p3604
aS'fantastic'
p3605
aS', just great'
p3606
aS'perfect'
p3607
aS'ideal'
p3608
aS', great'
p3609
aS'safe delightful'
p3610
aS', perfect'
p3611
aS'Great'
p3612
aS'best'
p3613
aS', even better'
p3614
aS', awesome'
p3615
aS'great'
p3616
aS'great'
p3617
aS'great'
p3618
aS', very good'
p3619
aS', better'
p3620
aS', perfect'
p3621
aS'great'
p3622
aS', ideal'
p3623
aS'great'
p3624
aS'excellent'
p3625
aS', superb'
p3626
aS', perfect'
p3627
aS'very great close'
p3628
aS'such great quiet'
p3629
aS'great'
p3630
aS'great'
p3631
aS'great'
p3632
aS'perfect'
p3633
aS'great'
p3634
aS', very good'
p3635
aS', great'
p3636
aS', great'
p3637
aS", n't greatest"
p3638
aS', good right'
p3639
aS'great'
p3640
aS'good central close'
p3641
aS'Great'
p3642
aa(lp3643
S', lovely'
p3644
aS'great'
p3645
aS', best'
p3646
aS'very nicest close'
p3647
aS', great'
p3648
aS'safe'
p3649
aS'best'
p3650
aS', quiet, safe'
p3651
aS'Nice'
p3652
aS'nice'
p3653
aS'great'
p3654
aS', very nice'
p3655
aS'very nice'
p3656
aS'very nice'
p3657
aS', quiet, very safe'
p3658
aS', very upscale'
p3659
aS', very cool'
p3660
aS', really great'
p3661
aS'nice'
p3662
aS'Beautiful'
p3663
aS', safe'
p3664
aS'nice'
p3665
aS', great'
p3666
aS'best'
p3667
aS', that, great'
p3668
aS'real'
p3669
aS'better'
p3670
aS', full'
p3671
aS'safe'
p3672
aS'Beautiful'
p3673
aS'nice'
p3674
aS'safe'
p3675
aS'great'
p3676
aS', really pretty'
p3677
aS'very safe'
p3678
aS'great'
p3679
aS', very safe'
p3680
aS'very Great safe'
p3681
aS'great'
p3682
aS'safe'
p3683
aS'really great'
p3684
aS'such wonderful'
p3685
aS', very safe'
p3686
aS', charming'
p3687
aS'Great awesome'
p3688
aS', fantastic'
p3689
aS', great'
p3690
aS', awesome'
p3691
aS', great'
p3692
aS', very walkable'
p3693
aS'safe'
p3694
aS', fantastic'
p3695
aS', very nice'
p3696
aS'great'
p3697
aS', beautiful'
p3698
aS', wonderful'
p3699
aS'Great'
p3700
aS', fantastic'
p3701
aS'many SF'
p3702
aS', VERY nice'
p3703
aS', cute'
p3704
aS', great'
p3705
aS'Wonderful'
p3706
aS'Wonderful'
p3707
aS'good'
p3708
aS'very nice'
p3709
aS'beautiful'
p3710
aS', very peaceful'
p3711
aS'great'
p3712
aS'very quiet safe'
p3713
aS', best'
p3714
aS'super quiet close'
p3715
aS'nice'
p3716
aS'lovely'
p3717
aS'Great'
p3718
aS'vibrant'
p3719
aS'very nice'
p3720
aS'great'
p3721
aS'great preferable'
p3722
aS'very safe'
p3723
aS'lovely'
p3724
aS'very safe'
p3725
aS', nice'
p3726
aS', perfect'
p3727
aS'great'
p3728
aS'great'
p3729
aS', great, easy'
p3730
aS'very quiet, which nice'
p3731
aS', very quite safe'
p3732
aS'great'
p3733
aS'safe'
p3734
aS'wonderful'
p3735
aS'great'
p3736
aS', excellent'
p3737
aS'safe clean'
p3738
aS'Great'
p3739
aS'favorite'
p3740
aS'good'
p3741
aS', pretty noisy'
p3742
aS'trendy'
p3743
aS'nice, safe'
p3744
aS', very safe'
p3745
aS'great'
p3746
aS', perfect'
p3747
aS'gorgeous'
p3748
aS'safe'
p3749
aS'beautiful'
p3750
aS', sensational'
p3751
aS', perfect'
p3752
aS', awesome'
p3753
aS'lovely, that'
p3754
aS'nice'
p3755
aS'great'
p3756
aS'nice'
p3757
aS', fantastic'
p3758
aS'Great'
p3759
aS'wonderful safe'
p3760
aS', wonderful'
p3761
aS', amazing'
p3762
aS'absolutely amazing'
p3763
aS'Very safe'
p3764
aS'very nice'
p3765
aS', great close'
p3766
aS'better'
p3767
aS', great'
p3768
aS', fantastic'
p3769
aS'greatest'
p3770
aS', great'
p3771
aS'great'
p3772
aS'safe'
p3773
aS', very nice'
p3774
aS'really cool'
p3775
aS'Delightful'
p3776
aS'great'
p3777
aS'Great, very safe'
p3778
aS', safe'
p3779
aS'clean'
p3780
aS'short excellent'
p3781
aS'nice'
p3782
aS'safe'
p3783
aS', very nice'
p3784
aS'beautiful'
p3785
aS'convenient safe'
p3786
aS', just perfect'
p3787
aS'safe'
p3788
aS'great'
p3789
aS'best'
p3790
aS'beautiful'
p3791
aS'lovely'
p3792
aS'great'
p3793
aS'beautiful'
p3794
aS', great'
p3795
aS', cute'
p3796
aS'Quiet safe'
p3797
aS'great'
p3798
aS'great'
p3799
aS', wonderful close'
p3800
aS'great quiet'
p3801
aS'Great'
p3802
aS'safe'
p3803
aS', even better'
p3804
aS'lovely quiet'
p3805
aS'super safe'
p3806
aS'lovely, which'
p3807
aS'Safe'
p3808
aS'beautiful'
p3809
aS'Best'
p3810
aS', fantastic'
p3811
aS'very nice'
p3812
aS'good safe'
p3813
aS'wonderful'
p3814
aS', full'
p3815
aS'very nice'
p3816
aS', literally right'
p3817
aS', very safe'
p3818
aS'safe'
p3819
aS'best'
p3820
aS', safe'
p3821
aS'great'
p3822
aS', spectacular able'
p3823
aS', perfect'
p3824
aS', beautiful'
p3825
aS'great'
p3826
aS'favorite'
p3827
aS'wonderful'
p3828
aS'great'
p3829
aS'good'
p3830
aS'nice quiet'
p3831
aS', fantastic'
p3832
aS'nice'
p3833
aS'fantastic'
p3834
aS'full'
p3835
aS', very safe'
p3836
aS'great'
p3837
aS', completely safe'
p3838
aS', lively'
p3839
aS', full'
p3840
aS'very walkable beautiful'
p3841
aS'Fantastic'
p3842
aS', safe'
p3843
aS'very nice'
p3844
aS'great'
p3845
aS', amazing'
p3846
aS'beautiful'
p3847
aS'beautiful'
p3848
aS', lovely'
p3849
aS'perfect'
p3850
aS'very clean easy'
p3851
aS'very safe'
p3852
aS'safe'
p3853
aS'great'
p3854
aS'Great'
p3855
aS', very safe'
p3856
aS', very nice'
p3857
aS'best'
p3858
aS', very safe'
p3859
aS'best'
p3860
aS'great'
p3861
aS'great'
p3862
aS'wonderful close'
p3863
aS'nice'
p3864
aS', safe'
p3865
aS', fabulous'
p3866
aS'super easy'
p3867
aS', great, close'
p3868
aS', very cute'
p3869
aS'nice'
p3870
aS'Really cute'
p3871
aS'beautiful'
p3872
aS', clean, nice'
p3873
aS'best'
p3874
aS', great, able'
p3875
aS', beautiful'
p3876
aS', wonderful'
p3877
aS'good'
p3878
aS'gorgeous'
p3879
aS', wonderful'
p3880
aS', perfect'
p3881
aS', nice'
p3882
aS'cool little'
p3883
aS', clean'
p3884
aS'lovely'
p3885
aS', very charming, close'
p3886
aS'nice quiet'
p3887
aS'very nice'
p3888
aS'Great close'
p3889
aS'great quiet'
p3890
aS'fantastic'
p3891
aS'beautiful'
p3892
aS'Beautiful little flat'
p3893
aS'nice quiet'
p3894
aS'Beautiful quiet'
p3895
aS'new favorite'
p3896
aS'great'
p3897
aS'Great'
p3898
aS', perfect safe'
p3899
aS', lovely'
p3900
aS', awesome'
p3901
aS'very Great safe'
p3902
aS'safe clean quiet'
p3903
aS'great'
p3904
aS', perfect'
p3905
aS'full'
p3906
aS'great'
p3907
aS'wonderful'
p3908
aS'great'
p3909
aS'great cute'
p3910
aS', great, very safe'
p3911
aS'Great'
p3912
aa(lp3913
S'awesome'
p3914
aS'large'
p3915
aS', very clean'
p3916
aS', spacious, comfortable'
p3917
aS'fantastic'
p3918
aS', great'
p3919
aS'Huge'
p3920
aS'safe'
p3921
aS'otherwise very tidy'
p3922
aS', large'
p3923
aS'nice'
p3924
aS'beautiful'
p3925
aS'very nice'
p3926
aS', very clean'
p3927
aS', very clean'
p3928
aS'all best'
p3929
aS'great'
p3930
aS', amazing'
p3931
aS'better'
p3932
aS'cool'
p3933
aS'many awesome'
p3934
aS'great'
p3935
aS'Wonderful'
p3936
aS', perfect'
p3937
aS'all important'
p3938
aS'great'
p3939
aS'much'
p3940
aS'very nice'
p3941
aS', great'
p3942
aS', ready'
p3943
aS', really which helpful'
p3944
aS'great'
p3945
aS'Nice'
p3946
aS'great'
p3947
aS', nice'
p3948
aS'many'
p3949
aS'wonderful'
p3950
aS'Great'
p3951
aS', really nice'
p3952
aS', wonderful Comfortable'
p3953
aS', impressed'
p3954
aS', ideal'
p3955
aS'recomendable amazing'
p3956
aS'great'
p3957
aS'Awesome'
p3958
aS'Great'
p3959
aS'Great'
p3960
aS'fantastic'
p3961
aS'charming'
p3962
aS', wonderful'
p3963
aS', clean'
p3964
aS', large'
p3965
aS'perfect'
p3966
aS'Such cool'
p3967
aS', awesome'
p3968
aS'nice'
p3969
aS'Great'
p3970
aS'Awesome'
p3971
aS'Nice'
p3972
aS'great'
p3973
aS', as charming'
p3974
aS'Great'
p3975
aS', quite reasonable'
p3976
aS'Great'
p3977
aS'fantastic'
p3978
aS'very great comfortable'
p3979
aS'most affordable'
p3980
aS'Great'
p3981
aS', very quaint'
p3982
aS', charming'
p3983
aS'Nice'
p3984
aS'Great'
p3985
aS'Great'
p3986
aS', excellent'
p3987
aS'cute'
p3988
aS'fantastic'
p3989
aS'such lovely'
p3990
aS', very clean'
p3991
aS', perfect'
p3992
aS', gorgeous'
p3993
aS'Such nice'
p3994
aS', fantastic'
p3995
aS'perfect'
p3996
aS'great'
p3997
aS'all handy'
p3998
aS'Excellent'
p3999
aS', really nice'
p4000
aS', exactly comfortable'
p4001
aS'great'
p4002
aS'What great'
p4003
aS', comfortable'
p4004
aS', great, comfortable'
p4005
aS'perfect'
p4006
aS'perfect'
p4007
aS'first'
p4008
aS'many'
p4009
aS'whole'
p4010
aS'many'
p4011
aS'very lovely'
p4012
aS', amazing'
p4013
aS', beautiful'
p4014
aS', clean'
p4015
aS', clean'
p4016
aS'really nice'
p4017
aS'great little'
p4018
aS', beautiful'
p4019
aS'great'
p4020
aS'great'
p4021
aS'great'
p4022
aS'Beautiful'
p4023
aS', awesome'
p4024
aS', very cute'
p4025
aS'best'
p4026
aS', great'
p4027
aS', absolutely perfect'
p4028
aS', very comfortable'
p4029
aS'awesome'
p4030
aS'such amazing'
p4031
aS', great'
p4032
aS'really wonderful'
p4033
aS'Incredible'
p4034
aS', good'
p4035
aS'nice'
p4036
aS'nice'
p4037
aS'Very cute little, that perfect'
p4038
aS'very Great simple'
p4039
aS'Nice'
p4040
aS', great'
p4041
aS'clean'
p4042
aS', okay'
p4043
aS'Fabulous'
p4044
aS'nice'
p4045
aS'wonderful, very close'
p4046
aS', peaceful'
p4047
aS', very clean'
p4048
aS', clean'
p4049
aS'nice'
p4050
aS'Amazing'
p4051
aS', fantastic'
p4052
aS', fantastic'
p4053
aS', really nice'
p4054
aS', absolutely beautiful, even bigger'
p4055
aS', very organized'
p4056
aS'What awesome'
p4057
aS', cute'
p4058
aS'comfortable'
p4059
aS', new'
p4060
aS'great, nice'
p4061
aS', nice'
p4062
aS'own'
p4063
aS'Great'
p4064
aS'perfect'
p4065
aS'better'
p4066
aS'great'
p4067
aS'great peaceful'
p4068
aS', perfect'
p4069
aS', perfect'
p4070
aS'clean'
p4071
aS'great'
p4072
aS'great'
p4073
aS'quiet safe'
p4074
aS'excellent'
p4075
aS', how impeccably clean'
p4076
aS'better'
p4077
aS', very clean'
p4078
aS'nice quiet'
p4079
aS', very clean'
p4080
aS'great'
p4081
aS', perfect'
p4082
aS', really nice'
p4083
aS', perfect'
p4084
aS', perfect'
p4085
aS', very clean'
p4086
aS', fantastic'
p4087
aS'many, interested'
p4088
aS'great'
p4089
aS'best'
p4090
aS'great'
p4091
aS'nice'
p4092
aS', clean'
p4093
aS', wonderful'
p4094
aS', absolutely perfect'
p4095
aS', beautiful'
p4096
aS'beautiful'
p4097
aS', very clean'
p4098
aS'Great'
p4099
aS'better'
p4100
aS'very luxurious'
p4101
aS'absolute perfect'
p4102
aS', exceptionally clean'
p4103
aS', clean'
p4104
aS', beautiful'
p4105
aS', great'
p4106
aS', clean'
p4107
aS', very very big clean'
p4108
aS'nice'
p4109
aS', excellent'
p4110
aS', amazing'
p4111
aS'perfect'
p4112
aS'wonderful'
p4113
aS'great'
p4114
aS'great'
p4115
aS'many'
p4116
aS'Such great'
p4117
aS', nice'
p4118
aS', easy'
p4119
aS', well clean stocked'
p4120
aS', ideal'
p4121
aS', very clean'
p4122
aS'many'
p4123
aS'quick'
p4124
aS', wonderful'
p4125
aS'Amazing'
p4126
aS'whole, OK'
p4127
aS', gorgeous'
p4128
aS'Great'
p4129
aS'great'
p4130
aS', best'
p4131
aS', best'
p4132
aS'great'
p4133
aS', great'
p4134
aS', as clean'
p4135
aS', really great, really well located'
p4136
aS'nice, all that touristy'
p4137
aS'Very clean, that'
p4138
aS'great'
p4139
aS'lovely'
p4140
aS'great'
p4141
aS'very Great clean'
p4142
aS'great'
p4143
aS', available'
p4144
aS', sure'
p4145
aS', great'
p4146
aS', very clean'
p4147
aS', very clean'
p4148
aS'nice'
p4149
aS', great'
p4150
aS', clean'
p4151
aS'original'
p4152
aS'beautiful'
p4153
aS', very cute'
p4154
aS'Amazing'
p4155
aS', very close'
p4156
aS'good'
p4157
aS', ready'
p4158
aS', exactly as advertised'
p4159
aS'safe'
p4160
aS', great'
p4161
aS', fantastic'
p4162
aS'great'
p4163
aS'Great'
p4164
aS', thankfully available'
p4165
aS'great'
p4166
aS'beautiful'
p4167
aS'such great'
p4168
aS', nice'
p4169
aS'Great'
p4170
aS', amazing'
p4171
aS'Great'
p4172
aS'great'
p4173
aS', better'
p4174
aS'unique'
p4175
aS', more cozy'
p4176
aS', beautiful'
p4177
aS', perfect'
p4178
aS'such, truly comfortable'
p4179
aS'beautiful'
p4180
aS', very beautiful closed'
p4181
aS'ideal'
p4182
aS'Great ideal'
p4183
aS', huge'
p4184
aS'Nice'
p4185
aS'beautiful'
p4186
aS'Beautiful'
p4187
aS', great'
p4188
aS'great'
p4189
aS'fantastic'
p4190
aS'superb, very happy'
p4191
aS', even better'
p4192
aS'Huge'
p4193
aS', very clean'
p4194
aS', great'
p4195
aS', great'
p4196
aS', beautiful'
p4197
aS'Lovely, great'
p4198
aS', perfect'
p4199
aS'many'
p4200
aS', nice'
p4201
aS', great'
p4202
aS', clean'
p4203
aS'beautiful'
p4204
aS', able'
p4205
aS', very clean modern'
p4206
aS'Beautiful'
p4207
aS'lovely'
p4208
aS', amazing'
p4209
aS'unique'
p4210
aS', very clean'
p4211
aS'nice'
p4212
aS'Good'
p4213
aS'Great'
p4214
aS'Great'
p4215
aS'Great'
p4216
aS', available'
p4217
aS', perfect'
p4218
aS'Wonderful'
p4219
aS'Great'
p4220
aS'great'
p4221
aS'comfortable'
p4222
aS'most beautiful'
p4223
aS', very free free'
p4224
aS', awesome'
p4225
aS'Great'
p4226
aS'all perfect'
p4227
aS'wonderful'
p4228
aS', nice'
p4229
aS', how great'
p4230
aS', stunning'
p4231
aS'amazing'
p4232
aS'great'
p4233
aS'comfortable'
p4234
aS'good'
p4235
aS'giant, able'
p4236
aS'perfect'
p4237
aS'great'
p4238
aS'beautiful, flat'
p4239
aS', very clean'
p4240
aS'fabulous'
p4241
aS', great'
p4242
aS', beautiful'
p4243
aS'better'
p4244
aS', very nice'
p4245
aS', perfect'
p4246
aS'great'
p4247
aS'beautiful comfortable'
p4248
aS', great'
p4249
aS', perfect'
p4250
aS'Great'
p4251
aS'Very spacious'
p4252
aS'fantastic'
p4253
aS', great'
p4254
aS', great'
p4255
aS'great'
p4256
aS'Great'
p4257
aS', very peaceful'
p4258
aS', very lovely comfortable'
p4259
aS'very pleasant'
p4260
aS'most interesting'
p4261
aS'most'
p4262
aS', perfect'
p4263
aS'Lovely airy'
p4264
aS', which fine'
p4265
aS', great'
p4266
aS'best'
p4267
aS'Great'
p4268
aS'easy'
p4269
aS'cool'
p4270
aS'nice'
p4271
aS'very great great'
p4272
aS'ideal'
p4273
aS', very clean'
p4274
aS', lovely'
p4275
aS'Clear'
p4276
aS'good'
p4277
aS', easy'
p4278
aS'wonderful'
p4279
aS', lovely'
p4280
aS'Great'
p4281
aS'Great'
p4282
aS'great'
p4283
aS', clean'
p4284
aS', perfect'
p4285
aS', wonderful'
p4286
aS'Great'
p4287
aS'all great'
p4288
aS', beautiful'
p4289
aS', great'
p4290
aS', really nice'
p4291
aS'cool'
p4292
aS', easy'
p4293
aS', exceptionally located, how close'
p4294
aS'perfect'
p4295
aS'Nice'
p4296
aS'Very comfortable'
p4297
aS'very nice'
p4298
aS'Great'
p4299
aS'Nice'
p4300
aS'great'
p4301
aS'many great'
p4302
aS'Great'
p4303
aS'beautiful'
p4304
aS'Great'
p4305
aS'great'
p4306
aS', immaculately clean'
p4307
aS'What lovely'
p4308
aS', decent'
p4309
aS'Great'
p4310
aS', great'
p4311
aS'Wonderful'
p4312
aS', great'
p4313
aS', incredible'
p4314
aS'first'
p4315
aS', great'
p4316
aS', clean'
p4317
aS'ideal'
p4318
aS'excellent'
p4319
aS', clean'
p4320
aS'Great'
p4321
aS', lovely'
p4322
aS', clean'
p4323
aS'perfect'
p4324
aS'wonderful'
p4325
aS'nice'
p4326
aS'perfect'
p4327
aS'very comfortable'
p4328
aS'nice furnished'
p4329
aS'best'
p4330
aS', very comfortable'
p4331
aS'super cool'
p4332
aS'perfect'
p4333
aS', gorgeous'
p4334
aS'beautiful'
p4335
aS', large cozy'
p4336
aS'super'
p4337
aS', beautiful'
p4338
aS', very safe'
p4339
aS', simply beautiful'
p4340
aS'wonderful'
p4341
aS', sure'
p4342
aS', perfect'
p4343
aS'better'
p4344
aS', beautiful'
p4345
aS'perfect'
p4346
aS', better'
p4347
aS', clean'
p4348
aS'Very comfortable'
p4349
aS'such nice'
p4350
aS'gorgeous'
p4351
aS'favorite'
p4352
aS'Great'
p4353
aS'great'
p4354
aS'lovely comfortable thoughtful, effective'
p4355
aS', awesome'
p4356
aS'beautiful'
p4357
aS'What fantastic'
p4358
aS', ideal'
p4359
aS'Very very clean beautiful'
p4360
aS'friendly'
p4361
aS'great'
p4362
aS'best'
p4363
aS'Amazing'
p4364
aS', wonderful'
p4365
aS', absolutely beautiful'
p4366
aS'great, excellent'
p4367
aS'What cute little'
p4368
aS'great'
p4369
aS'nice'
p4370
aS'perfect'
p4371
aS'nice'
p4372
aS'peaceful'
p4373
aS'perfect'
p4374
aS', cute'
p4375
aS', very accurate'
p4376
aS'very whole clean'
p4377
aS'clean private'
p4378
aS'Great clean, comfortable'
p4379
aS', great'
p4380
aS'nice'
p4381
aS'very clean'
p4382
aS'quiet clean'
p4383
aS', outstanding'
p4384
aS', great'
p4385
aS', really clean'
p4386
aS'Awesome'
p4387
aS', great'
p4388
aS'very comfortable'
p4389
aS'lovely'
p4390
aS'Great'
p4391
aS', clean'
p4392
aS', absolutely perfect'
p4393
aS'Great'
p4394
aS', great'
p4395
aS', awesome'
p4396
aS', better'
p4397
aS'great'
p4398
aS', very clean'
p4399
aS'nice'
p4400
aS', fabulous'
p4401
aS'Great little'
p4402
aS'perfect'
p4403
aS', clean'
p4404
aS', comfortable'
p4405
aS'perfect'
p4406
aS'Fabulous, which'
p4407
aS', impeccable'
p4408
aS', very comfortable'
p4409
aS'nice'
p4410
aS', nice'
p4411
aS', accessible'
p4412
aS'perfect'
p4413
aS'Good'
p4414
aS'right'
p4415
aS', very perfect'
p4416
aS'lovely'
p4417
aS'lovely'
p4418
aS'lovely'
p4419
aS'nice'
p4420
aS', clean, safe'
p4421
aS'great'
p4422
aS'perfect'
p4423
aS'lovely'
p4424
aS'ideal'
p4425
aS'good'
p4426
aS'special'
p4427
aS', easy, really convenient'
p4428
aS'perfect'
p4429
aS'great'
p4430
aS'very perfect'
p4431
aS'wonderful'
p4432
aS'beautiful'
p4433
aS'really lovely'
p4434
aS'lovely'
p4435
aS'Great'
p4436
aS'very Lovely clean'
p4437
aS', amazing'
p4438
aS'best'
p4439
aS'great'
p4440
aS'great'
p4441
aS', very immaculate clean'
p4442
aS'Beautiful'
p4443
aS', perfect'
p4444
aS', beautiful'
p4445
aS', perfect'
p4446
aS'Great'
p4447
aS'perfect'
p4448
aS', great'
p4449
aS', adorable'
p4450
aS', very nice'
p4451
aS', clean'
p4452
aS'many'
p4453
aS', best'
p4454
aS', great'
p4455
aS'sacred magical'
p4456
aS'great'
p4457
aS'Great'
p4458
aS'Excellent'
p4459
aS', awesome'
p4460
aS', great'
p4461
aS', clean'
p4462
aS', great'
p4463
aS', perfect'
p4464
aS'Clean'
p4465
aS', best due'
p4466
aS', very clean'
p4467
aS'wonderful'
p4468
aS', just beautiful'
p4469
aS'nice'
p4470
aS', really clean'
p4471
aS'many'
p4472
aS'great'
p4473
aS', elegant'
p4474
aS'comfortable'
p4475
aS', very clean'
p4476
aS'beautiful'
p4477
aS', absolutely gorgeous'
p4478
aS'What great'
p4479
aS', clean'
p4480
aS', clean'
p4481
aS'nice'
p4482
aS'many'
p4483
aS', simply gorgeous, clean, that'
p4484
aS', awesome'
p4485
aS'such nice'
p4486
aS'great'
p4487
aS'nice'
p4488
aS', really great'
p4489
aS', fabulous'
p4490
aS'perfect'
p4491
aS'great'
p4492
aS'Great'
p4493
aS', lovely'
p4494
aS'adorable'
p4495
aS', very comfortable'
p4496
aS', clean'
p4497
aS', great'
p4498
aS'Great'
p4499
aS'great'
p4500
aS'Great'
p4501
aS', clean'
p4502
aS'beautiful'
p4503
aS'very great easy'
p4504
aS'Great'
p4505
aS', great'
p4506
aS', best'
p4507
aS'cheap'
p4508
aS'great'
p4509
aS'ideal'
p4510
aS'Great'
p4511
aS'great quiet'
p4512
aS'fantastic'
p4513
aS', great'
p4514
aS'awesome'
p4515
aS', amazing'
p4516
aS'Great'
p4517
aS', lovely'
p4518
aS'What great'
p4519
aS'most'
p4520
aS', enough lucky'
p4521
aS'Great'
p4522
aS'lovely'
p4523
aS'great'
p4524
aS'great'
p4525
aS', that, quick'
p4526
aS'few, that, quick'
p4527
aS', nice'
p4528
aS', great'
p4529
aS'What great'
p4530
aS', perfect'
p4531
aS'pleasant clean spacious'
p4532
aS'lovely'
p4533
aS', very clean, spacious'
p4534
aS'great'
p4535
aS', great'
p4536
aS'great'
p4537
aS', great'
p4538
aS'really good'
p4539
aS', available'
p4540
aS'great, young'
p4541
aS'great'
p4542
aS'right'
p4543
aS', really perfect'
p4544
aS', incredible'
p4545
aS'Unique'
p4546
aS'modern'
p4547
aS', little better'
p4548
aS'perfect'
p4549
aS', extremely beautiful'
p4550
aS', nicely secluded'
p4551
aS'really nice'
p4552
aS'lovely'
p4553
aS', amazing'
p4554
aS', immaculately clean'
p4555
aS', charming'
p4556
aS', Very very great nice comfortable'
p4557
aS'perfect'
p4558
aS'Great'
p4559
aS', really great-'
p4560
aS'Great central'
p4561
aS'Great'
p4562
aS', very close'
p4563
aS', very nice'
p4564
aS'such friendly'
p4565
aS", n't able"
p4566
ag4566
aS'amazing'
p4567
aS'Such sweet'
p4568
aS', perfect'
p4569
aS'best'
p4570
aS'Most'
p4571
aS', easy'
p4572
aS'friendly, that'
p4573
aS', favorite'
p4574
aS'great'
p4575
aS'perfect'
p4576
aS'very Great clean'
p4577
aS', perfect, easy'
p4578
aS'Great'
p4579
aS', able'
p4580
aS'Great'
p4581
aS', as nice'
p4582
aS', absolutely fantastic'
p4583
aS', perfect'
p4584
aS', even more lovely'
p4585
aS'wonderful'
p4586
aS', just wonderful'
p4587
aS'pleasant'
p4588
aS', available'
p4589
aS', great'
p4590
aS'many great'
p4591
aS'absolutely wonderful'
p4592
aS', very clean'
p4593
aS'favorite'
p4594
aS'very charming'
p4595
aS'cute'
p4596
aS'better'
p4597
aS'great'
p4598
aS'fabulous'
p4599
aS'many'
p4600
aS', super'
p4601
aS'first'
p4602
aS', available'
p4603
aS'lovely'
p4604
aS', just beautiful'
p4605
aS'clean'
p4606
aS'overall great'
p4607
aS'great'
p4608
aS', easy'
p4609
aS'good'
p4610
aS'perfect'
p4611
aS'What lovely'
p4612
aS', perfect'
p4613
aS'great'
p4614
aS'great, only'
p4615
aS'great'
p4616
aS'great'
p4617
aS', wonderful'
p4618
aS', amazing'
p4619
aS'perfect, wise'
p4620
aS'wonderful'
p4621
aS'perfect little'
p4622
aS'lovely'
p4623
aS', great'
p4624
aS', clean'
p4625
aS'What lovely'
p4626
aS', very nice'
p4627
aS', great'
p4628
aS', available'
p4629
aS'great'
p4630
aS', perfect'
p4631
aS'great'
p4632
aS'great'
p4633
aS'charming'
p4634
aS'beautiful'
p4635
aS'first'
p4636
aS'comfortable'
p4637
aS', great'
p4638
aS'perfect'
p4639
aS'Wonderful'
p4640
aS', perfect'
p4641
aS'Great'
p4642
aS'better'
p4643
aS', just perfect'
p4644
aS'fantastic'
p4645
aS', clean'
p4646
aS'Brilliant overall'
p4647
aS'quiet clean classy'
p4648
aS', perfect'
p4649
aS'good'
p4650
aS', beautiful'
p4651
aS', as amazing'
p4652
aS', right'
p4653
aS', able'
p4654
aS', amazing'
p4655
aS'wonderful'
p4656
aS', very appealing'
p4657
aS'many cool'
p4658
aS', amazing'
p4659
aS', very welcoming'
p4660
aS'better'
p4661
aS'great'
p4662
aS'lovely'
p4663
aS', great'
p4664
aS'Good'
p4665
aS'new'
p4666
aS'Great'
p4667
aS'wonderful'
p4668
aS'great'
p4669
aS', fabulous'
p4670
aS', awesome'
p4671
aS', perfect'
p4672
aS'Very comfortable'
p4673
aS'best'
p4674
aS'wonderful'
p4675
aS', cute'
p4676
aS', clean'
p4677
aS', cute'
p4678
aS', right'
p4679
aS', clean'
p4680
aS'Fabulous little'
p4681
aS', fairly close'
p4682
aS'Good'
p4683
aS', nice'
p4684
aS', very comfortable'
p4685
aS'Great'
p4686
aS'Great'
p4687
aS'great'
p4688
aS', awesome'
p4689
aa(lp4690
S'great'
p4691
aS'trendy'
p4692
aS'many great'
p4693
aS'lovely'
p4694
aS'pretty'
p4695
aS'nice'
p4696
aS'many'
p4697
aS'amazing'
p4698
aS'great'
p4699
aS'wonderful'
p4700
aS'cool'
p4701
aS'nice'
p4702
aS'super cute'
p4703
aS'good'
p4704
aS'great'
p4705
aS'great'
p4706
aS'great'
p4707
aS'best'
p4708
aS'amazing'
p4709
aS'many tasty'
p4710
aS'good'
p4711
aS'amazing'
p4712
aS'good'
p4713
aS'great'
p4714
aS'favorite'
p4715
aS'great'
p4716
aS'great'
p4717
aS'great'
p4718
aS'great'
p4719
aS'great'
p4720
aS'great'
p4721
aS'great'
p4722
aS'wonderful'
p4723
aS', better'
p4724
aS'good'
p4725
aS'many great'
p4726
aS'great'
p4727
aS'really several good italian, that'
p4728
aS'great'
p4729
aS'Great'
p4730
aS'best'
p4731
aS'great'
p4732
aS'Great'
p4733
aS'many good, able'
p4734
aS'great friendly'
p4735
aS'great'
p4736
aS'great, nice'
p4737
aS'wonderful'
p4738
aS'great'
p4739
aS'Great'
p4740
aS'great'
p4741
aS'amazing'
p4742
aS'great'
p4743
aS'great'
p4744
aS'great close'
p4745
aS'good'
p4746
aS'delicious'
p4747
aS'nice'
p4748
aS'full'
p4749
aS'nice'
p4750
aS'many many nearby, which great'
p4751
aS'great'
p4752
aS'awesome'
p4753
aS'nice'
p4754
aS'many great'
p4755
aS'amazing'
p4756
aS'great'
p4757
aS'many'
p4758
aS'many, hard'
p4759
aS'good real'
p4760
aS'great'
p4761
aS'great'
p4762
aS'wharf/ great'
p4763
aS'great'
p4764
aS'amazing'
p4765
aS'all great little'
p4766
aS'many'
p4767
aS'nice'
p4768
aS'great'
p4769
aS'many'
p4770
aS'many'
p4771
aS'many'
p4772
aS'amazing'
p4773
aS'good local'
p4774
aS'Great'
p4775
aS'many'
p4776
aS'good'
p4777
aS'great'
p4778
aS'many'
p4779
aS'many'
p4780
aS'many'
p4781
aS'many amazing'
p4782
aS'many good'
p4783
aS'great'
p4784
aS'great'
p4785
aS'trendy'
p4786
aS'many incredible'
p4787
aS'nice'
p4788
aS'nice'
p4789
aS'nice'
p4790
aS'many great'
p4791
aS', safe'
p4792
aS', able'
p4793
aS'many great'
p4794
aS'nice local'
p4795
aS'interesting'
p4796
aS'great'
p4797
aS'great'
p4798
aS'great'
p4799
aS'many great'
p4800
aS'lovely'
p4801
aS'many'
p4802
aS'many'
p4803
aS'good'
p4804
aS', literally right'
p4805
aS'great, that'
p4806
aS'great'
p4807
aS'stylish'
p4808
aS'very good'
p4809
aS'cool'
p4810
aS'all nice'
p4811
aS'nice'
p4812
aS', much'
p4813
aS'great'
p4814
aS'many'
p4815
aS'many'
p4816
aS'many'
p4817
aS'many'
p4818
aS'awesome'
p4819
aS'great'
p4820
aS'many'
p4821
aS'great'
p4822
aS'great'
p4823
aS'wonderful cool'
p4824
aS'great'
p4825
aS'excellent'
p4826
aS'many good'
p4827
aS'good'
p4828
aS'wonderful small'
p4829
aS'good'
p4830
aS'decent'
p4831
aS'favorite'
p4832
aS'decent'
p4833
aS'many'
p4834
aS'many'
p4835
aS'many wonderful'
p4836
aS'good'
p4837
aS'many'
p4838
aS'wonderful'
p4839
aS'excellent'
p4840
aS'Good'
p4841
aS'many'
p4842
aS'many nice'
p4843
aS'many'
p4844
aS'great'
p4845
aS'many'
p4846
aS'great'
p4847
aS'good'
p4848
aS'numerous great'
p4849
aS'great'
p4850
aS'many'
p4851
aS'great'
p4852
aS'great local'
p4853
aS'great'
p4854
aS'great'
p4855
aS'Active many'
p4856
aS'great'
p4857
aS'good'
p4858
aS'great'
p4859
aS'many'
p4860
aS'good close, super easy'
p4861
aS'many wonderful'
p4862
aS'many'
p4863
aS'many fantastic'
p4864
aS'great'
p4865
aS'great'
p4866
aS'many awesome, safe'
p4867
aS'really good'
p4868
aS'good'
p4869
aS'great'
p4870
aS'lovely'
p4871
aS'fantastic'
p4872
aS'all best'
p4873
aS'great'
p4874
aS'wonderful local'
p4875
aS'great'
p4876
aS'more'
p4877
aS'great'
p4878
aS'many packed'
p4879
aS'great'
p4880
aS'cool'
p4881
aS'amazing'
p4882
aS'wonderful'
p4883
aS'great'
p4884
aS'all great'
p4885
aS'great'
p4886
aS'nice'
p4887
aS'great'
p4888
aS'great'
p4889
aS'great'
p4890
aS'many great'
p4891
aS'many fantastic local'
p4892
aS'nice'
p4893
aS'many'
p4894
aS'many'
p4895
aS'great'
p4896
aS'good'
p4897
aS'many'
p4898
aS'many'
p4899
aS'many'
p4900
aS'great close'
p4901
aS'great'
p4902
aS'many excellent'
p4903
aS'fantastic'
p4904
aS'many'
p4905
aS'many great'
p4906
aS'wonderful'
p4907
aS'great, very quiet'
p4908
aS'great Italian'
p4909
aS'delicious'
p4910
aS'fantastic'
p4911
aS'great little Italian'
p4912
aa(lp4913
S'great'
p4914
aS'slightly early'
p4915
aS'wonderful'
p4916
aS'great'
p4917
aS'lovely'
p4918
aS'great'
p4919
aS'great'
p4920
aS'very comfortable'
p4921
aS'great, very convenient'
p4922
aS'wonderful'
p4923
aS'great'
p4924
aS'beautiful'
p4925
aS'Nice'
p4926
aS'Awesome'
p4927
aS'comfortable'
p4928
aS'great'
p4929
aS'nice'
p4930
aS'wonderful'
p4931
aS'very nice'
p4932
aS'great'
p4933
aS'more pleasant'
p4934
aS'great'
p4935
aS'memorable'
p4936
aS'exactly as very Great advertised welcoming'
p4937
aS'pleasant'
p4938
aS'great'
p4939
aS'wonderful'
p4940
aS'Enjoyable'
p4941
aS'great'
p4942
aS'amazing'
p4943
aS'great'
p4944
aS', nice'
p4945
aS'great'
p4946
aS'great'
p4947
aS'great'
p4948
aS', very comfortable'
p4949
aS'great'
p4950
aS'unique'
p4951
aS'great'
p4952
aS'nice'
p4953
aS'Great'
p4954
aS'great'
p4955
aS', easy'
p4956
aS', fantastic'
p4957
aS'perfect'
p4958
aS'pleasant'
p4959
aS'decent'
p4960
aS'pleasant'
p4961
aS'nice'
p4962
aS'more perfect'
p4963
aS'very easy'
p4964
aS'great'
p4965
aS'Clear'
p4966
aS'wonderful'
p4967
aS', available'
p4968
aS'great'
p4969
aS'great'
p4970
aS', fantastic'
p4971
aS'lovely flat'
p4972
aS'really great'
p4973
aS'Great'
p4974
aS'perfect'
p4975
aS'wonderful'
p4976
aS'great'
p4977
aS', easy'
p4978
aS'early'
p4979
aS'very nice'
p4980
aS'wonderful'
p4981
aS'early, which'
p4982
aS'lovely'
p4983
aS'pleasant, honest'
p4984
aS', great'
p4985
aS', easy'
p4986
aS'Lovely'
p4987
aS'very enjoyable'
p4988
aS'great'
p4989
aS'such great'
p4990
aS', quick'
p4991
aS'most perfect'
p4992
aS', wonderful'
p4993
aS'very enjoyable'
p4994
aS'fabulous'
p4995
aS'wonderful'
p4996
aS'amazing'
p4997
aS'more private'
p4998
aS'great'
p4999
aS', excellent'
p5000
aS'wonderful'
p5001
aS'very pleasant'
p5002
aS'whole'
p5003
aS'great'
p5004
aS'first'
p5005
aS'great'
p5006
aS'lovely'
p5007
aS', quick'
p5008
aS'much more enjoyable'
p5009
aS'Great'
p5010
aS', how perfect'
p5011
aS'wonderful'
p5012
aS'great'
p5013
aS'great overall'
p5014
aS'wonderful'
p5015
aS', very comfortable'
p5016
aS'Excellent'
p5017
aS'great'
p5018
aS'very nice'
p5019
aS'awesome'
p5020
aS'great'
p5021
aS'comfortable'
p5022
aS'great'
p5023
aS', very helpful'
p5024
aS', sure'
p5025
aS'wonderful'
p5026
aS'how wonderful'
p5027
aS'great'
p5028
aS'very all satisfying'
p5029
aS', sure'
p5030
aS'great'
p5031
aS'great'
p5032
aS'great'
p5033
aS'wonderful'
p5034
aS'great'
p5035
aS'pleasant'
p5036
aS'very pleasant free'
p5037
aS'Great'
p5038
aS'beautiful'
p5039
aS'great'
p5040
aS'great'
p5041
aS'very good'
p5042
aS'great'
p5043
aS'excellent'
p5044
aS'excellent'
p5045
aS', perfect'
p5046
aS'fantastic'
p5047
aS'outstanding'
p5048
aS'enjoyable'
p5049
aS'lovely'
p5050
aS'great'
p5051
aS'very pleasant'
p5052
aS'wonderful'
p5053
aS'wonderful'
p5054
aS'lovely'
p5055
aS'comfortable'
p5056
aS'great'
p5057
aS'wonderful'
p5058
aS', amazing'
p5059
aS'wonderful'
p5060
aS'good'
p5061
aS'great'
p5062
aS'great'
p5063
aS'Great'
p5064
aS'amazing'
p5065
aS'perfect'
p5066
aS'fantastic'
p5067
aS'such pleasant'
p5068
aS'comfortable'
p5069
aS', pleasant, too short'
p5070
aS'lovely'
p5071
aS', incredibly responsive, easy'
p5072
aS'great'
p5073
aS'great'
p5074
aS', pretty short'
p5075
aS'great'
p5076
aS'fabulous'
p5077
aS'all great'
p5078
aS'great'
p5079
aS'Awesome'
p5080
aS'great'
p5081
aS'great'
p5082
aS'great'
p5083
aS'comfortable'
p5084
aS'better'
p5085
aS'wonderful'
p5086
aS'absolutely wonderful'
p5087
aS'great'
p5088
aS'perfect'
p5089
aS'great'
p5090
aS'Amazing'
p5091
aS', very convenient'
p5092
aS'wonderful'
p5093
aS'Great'
p5094
aS'perfect'
p5095
aS'cool'
p5096
aS'great'
p5097
aS', great comfortable'
p5098
aS', comfortable'
p5099
aS'wonderful'
p5100
aS'great'
p5101
aS'fantastic'
p5102
aS'gorgeous'
p5103
aS'very enjoyable'
p5104
aS'very easy'
p5105
aS'lovely'
p5106
aS'very pleasant'
p5107
aS'great'
p5108
aS'excellent'
p5109
aS'great'
p5110
aS'great'
p5111
aS'great'
p5112
aS'memorable'
p5113
aS'wonderful'
p5114
aS'wonderful'
p5115
aS'lovely'
p5116
aS'whole'
p5117
aS'great'
p5118
aS'most enjoyable'
p5119
aS'great'
p5120
aS'great'
p5121
aS'lovely'
p5122
aS'better'
p5123
aS'nice'
p5124
aS'wonderful'
p5125
aS'most enjoyable'
p5126
aS'really great'
p5127
aS'very pleasant'
p5128
aS'lovely'
p5129
aS'wonderful'
p5130
aS'very nice'
p5131
aS'wonderful'
p5132
aS'What fantastic'
p5133
aS'enjoyable'
p5134
aS'amazing'
p5135
aS'perfect'
p5136
aS'very good'
p5137
aS'first'
p5138
aS'fantastic'
p5139
aS', perfect'
p5140
aS'lovely, welcome'
p5141
aS', always nice'
p5142
aS'wonderful'
p5143
aS'wonderful'
p5144
aS'memorable'
p5145
aS'very busy'
p5146
aS', more pleasant'
p5147
aS'perfect'
p5148
aS', very enjoyable'
p5149
aS', absolutely delightful'
p5150
aS'great'
p5151
aS', perfect'
p5152
aS'truly wonderful'
p5153
aS'easy'
p5154
aS', great'
p5155
aS'perfect'
p5156
aS', busy'
p5157
aS', better, much'
p5158
aS'great'
p5159
aS'comfortable'
p5160
aS'delightful'
p5161
aS'wonderful'
p5162
aS'amazing'
p5163
aS'great'
p5164
aS'free'
p5165
aS'great'
p5166
aS'perfect'
p5167
aS', better'
p5168
aS'What fantastic'
p5169
aS'great, that'
p5170
aS'great'
p5171
aS'super easy'
p5172
aS'great'
p5173
aS'great'
p5174
aS', sure'
p5175
aS'very conformable'
p5176
aS'great'
p5177
aS', great'
p5178
aS'free'
p5179
aS'WONDERFUL'
p5180
aS'wonderful'
p5181
aS', able'
p5182
aS', really nice'
p5183
aS'great'
p5184
aS'great'
p5185
aS'awesome'
p5186
aS', easy'
p5187
aS', able'
p5188
aS'great'
p5189
aS'wonderful'
p5190
aS'comfortable'
p5191
aS'wonderful'
p5192
aS'wonderful'
p5193
aS'great'
p5194
aS'great'
p5195
aS'great weeklong'
p5196
aS'great'
p5197
aS', friendly'
p5198
aS'Amazing'
p5199
aS', very welcome'
p5200
aS'great'
p5201
aS'wonderful'
p5202
aS'great'
p5203
aS'great'
p5204
aS'great'
p5205
aS'great apt'
p5206
aS'great'
p5207
aS'great'
p5208
aS'great'
p5209
aS'such good'
p5210
aS'enjoyable'
p5211
aS'more perfect'
p5212
aS'wonderful'
p5213
aS'such lovely'
p5214
aS'very nice'
p5215
aS'fabulous'
p5216
aS'wonderful'
p5217
aS'fantastic'
p5218
aS'good'
p5219
aS'great'
p5220
aS'great'
p5221
aS'wonderful'
p5222
aS'great'
p5223
aS'great'
p5224
aS'delightful'
p5225
aS'most enjoyable'
p5226
aS'wonderful'
p5227
aS'very nice'
p5228
aS'lovely'
p5229
aS', absolutely fantastic'
p5230
aS'fabulous'
p5231
aS'entire, which wonderful'
p5232
aS', no less'
p5233
aS'great'
p5234
aS'great'
p5235
aS'wonderful'
p5236
aS'amazing'
p5237
aS'great'
p5238
aS'lovely'
p5239
aS'wonderful'
p5240
aS'great worth'
p5241
aS'great'
p5242
aS'comfortable'
p5243
aS'great'
p5244
aS'first'
p5245
aS'wonderful'
p5246
aS'enjoyable'
p5247
aS'fantastic'
p5248
aS'wonderful'
p5249
aS'great'
p5250
aS'What great'
p5251
aS'very pleasant'
p5252
aS'fantastic'
p5253
aS'easy'
p5254
aS', sure'
p5255
aS'wonderful'
p5256
aS'great'
p5257
aS'Great'
p5258
aS'very comfortable'
p5259
aS'great'
p5260
aS'excellent'
p5261
aS', responsible'
p5262
aS'Great'
p5263
aS'great'
p5264
aS'enjoyable'
p5265
aS', happy'
p5266
aS'great'
p5267
aS'great'
p5268
aa(lp5269
S'first'
p5270
aS'first'
p5271
aS'wonderful'
p5272
aS'first'
p5273
aS'first'
p5274
aS'wonderful'
p5275
aS'much'
p5276
aS'great'
p5277
aS', very forthcoming'
p5278
aS'quiet, which nice'
p5279
aS'fantastic'
p5280
aS'much'
p5281
aS'great'
p5282
aS'first'
p5283
aS'wonderful'
p5284
aS'Excellent'
p5285
aS'whole'
p5286
aS'great'
p5287
aS'awesome'
p5288
aS'first'
p5289
aS'first'
p5290
aS'great'
p5291
aS'really great'
p5292
aS'more'
p5293
aS'lovely'
p5294
aS'wonderful'
p5295
aS'First'
p5296
aS'excellent'
p5297
aS'quick'
p5298
aS'first'
p5299
aS'great'
p5300
aS'much'
p5301
aS'great'
p5302
aS'great'
p5303
aS'precious'
p5304
aS'best'
p5305
aS'great'
p5306
aS'amazing'
p5307
aS'first'
p5308
aS'more, both'
p5309
aS'wonderful'
p5310
aS', true, very loud'
p5311
aS'great'
p5312
aS'wonderful'
p5313
aS'great'
p5314
aS'first'
p5315
aS'good'
p5316
aS'great'
p5317
aS'amazing'
p5318
aS'great'
p5319
aS'wonderful'
p5320
aS'amazing'
p5321
aS'great'
p5322
aS'lovely, more happy'
p5323
aS'amazing'
p5324
aS'amazing'
p5325
aS', perfect'
p5326
aS'lovely'
p5327
aS'great'
p5328
aS', great'
p5329
aS'great'
p5330
aS'good'
p5331
aS'more'
p5332
aS'many'
p5333
aS'first'
p5334
aS'great'
p5335
aS'great'
p5336
aS'too much'
p5337
aS'totally wonderful'
p5338
aS'many'
p5339
aS'great'
p5340
aS'great'
p5341
aS'great'
p5342
aS'good'
p5343
aS'great'
p5344
aS'great'
p5345
aS', beautiful'
p5346
aS'lovely'
p5347
aS'wonderful'
p5348
aS'lovely'
p5349
aS'more'
p5350
aS'great'
p5351
aS'great'
p5352
aS'much'
p5353
aS'much'
p5354
aS'great'
p5355
aS'great'
p5356
aS'great'
p5357
aS'great'
p5358
aS'great'
p5359
aS'wonderful'
p5360
aS'fantastic'
p5361
aS'great'
p5362
aS'more'
p5363
aS'lovely'
p5364
aS'great'
p5365
aS'great'
p5366
aS'more relaxed'
p5367
aS'wonderful'
p5368
aS'amazing'
p5369
aS'more'
p5370
aS'more'
p5371
aS'more'
p5372
aS', great'
p5373
aS'great'
p5374
aS'great'
p5375
aS'great'
p5376
aS'best'
p5377
aS'great'
p5378
aS'first'
p5379
aS'great'
p5380
aS'first'
p5381
aS'fabulous'
p5382
aS'great'
p5383
aS'very first'
p5384
aS'much'
p5385
aS'very good'
p5386
aS'great'
p5387
aS'better'
p5388
aS'lovely, much'
p5389
aS'more'
p5390
aS'great'
p5391
aS'many'
p5392
aS'great'
p5393
aS'wonderful'
p5394
aS'several, sure'
p5395
aS'great'
p5396
aS'wonderful'
p5397
aS'enjoyable'
p5398
aS'wonderful'
p5399
aS'great'
p5400
aS'wonderful'
p5401
aS'wonderful'
p5402
aS'quite nice'
p5403
aS'incredible'
p5404
aS'great'
p5405
aS'such great'
p5406
aS'first'
p5407
aS'really good'
p5408
aS'such wonderful'
p5409
aS'great'
p5410
aS'great'
p5411
aS'first'
p5412
aS'fantastic'
p5413
aS'really good'
p5414
aS'first'
p5415
aS'great'
p5416
aS'lovely'
p5417
aS'such lovely'
p5418
aS'such wonderful'
p5419
aS'great'
p5420
aS'amazing'
p5421
aS'wonderful'
p5422
aS'wonderful'
p5423
aS'great'
p5424
aS'wonderful'
p5425
aS'first'
p5426
aS'great'
p5427
aS'wonderful'
p5428
aS'first'
p5429
aS'amazing'
p5430
aS'wonderful'
p5431
aS'great'
p5432
aS'great'
p5433
aS'most'
p5434
aS'more'
p5435
aS'excellent first'
p5436
aS'too much'
p5437
aS'great'
p5438
aS'wonderful'
p5439
aS'superb'
p5440
aS'much'
p5441
aS'wonderful'
p5442
aS'great'
p5443
aS'great'
p5444
aS'absolutely wonderful'
p5445
aS'really good'
p5446
aS'much'
p5447
aS'great'
p5448
aS'first'
p5449
aS'great'
p5450
aS'wonderful'
p5451
aS'great'
p5452
aS'great'
p5453
aS'wonderful'
p5454
aS'great'
p5455
aS'great'
p5456
aS'great, much flat better'
p5457
aS'great'
p5458
aS'great'
p5459
aS'great'
p5460
aS'first'
p5461
aS'fantastic'
p5462
aS'wonderful'
p5463
aS'great, very convenient'
p5464
aS'first'
p5465
aS'very good'
p5466
aS'first'
p5467
aS'amazing'
p5468
aS'great'
p5469
aS'first'
p5470
aS'great'
p5471
aS'fantastic'
p5472
aS'very first'
p5473
aS'great'
p5474
aS'wonderful'
p5475
aS'first'
p5476
aS'amazing'
p5477
aS'BEST'
p5478
aS'Excellent'
p5479
aS'fabulous'
p5480
aS'great'
p5481
aS'first'
p5482
aS', comfortable'
p5483
aS'fantastic'
p5484
aS'many many'
p5485
aS'wonderful'
p5486
aS'more'
p5487
aS'first'
p5488
aS'more'
p5489
aS'many'
p5490
aS'most amazing'
p5491
aS'great'
p5492
aS'such great'
p5493
aS'wonderful'
p5494
aS'wonderful'
p5495
aS'lovely'
p5496
aS'many'
p5497
aS'wonderful'
p5498
aS'First'
p5499
aS'first'
p5500
aS', ready'
p5501
aS'wonderful'
p5502
aS'more'
p5503
aS'many'
p5504
aS'first'
p5505
aS'first'
p5506
aS'whole'
p5507
aatp5508
ba(lp5509
g15
(g16
(dp5510
g18
g19
(g20
(I0
tp5511
g22
tp5512
Rp5513
(I1
(I2
tp5514
g29
I00
(lp5515
g33
ag34
atp5516
bsg36
g37
stp5517
Rp5518
a(dp5519
S'0.14.1'
p5520
(dp5521
S'axes'
p5522
g14
sS'blocks'
p5523
(lp5524
(dp5525
S'mgr_locs'
p5526
c__builtin__
slice
p5527
(I0
I2
I1
tp5528
Rp5529
sS'values'
p5530
g63
sasstp5531
bsb.