ccopy_reg
_reconstructor
p0
(cpandas.core.frame
DataFrame
p1
c__builtin__
object
p2
Ntp3
Rp4
(dp5
S'_metadata'
p6
(lp7
sS'_typ'
p8
S'dataframe'
p9
sS'_data'
p10
g0
(cpandas.core.internals
BlockManager
p11
g2
Ntp12
Rp13
((lp14
cpandas.core.indexes.base
_new_Index
p15
(cpandas.core.indexes.base
Index
p16
(dp17
S'data'
p18
cnumpy.core.multiarray
_reconstruct
p19
(cnumpy
ndarray
p20
(I0
tp21
S'b'
p22
tp23
Rp24
(I1
(I2
tp25
cnumpy
dtype
p26
(S'O8'
p27
I0
I1
tp28
Rp29
(I3
S'|'
p30
NNNI-1
I-1
I63
tp31
bI00
(lp32
S'Negative'
p33
aS'Positive'
p34
atp35
bsS'name'
p36
S'orientation'
p37
stp38
Rp39
ag15
(g16
(dp40
g18
g19
(g20
(I0
tp41
g22
tp42
Rp43
(I1
(I10
tp44
g29
I00
(lp45
Vapartment
p46
aVbathroom
p47
aVbed
p48
aVexperience
p49
aVhost
p50
aVlocation
p51
aVneighborhood
p52
aVplace
p53
aVroom
p54
aVstay
p55
atp56
bsg36
S'feats'
p57
stp58
Rp59
a(lp60
g19
(g20
(I0
tp61
g22
tp62
Rp63
(I1
(I2
I10
tp64
g29
I01
(lp65
(lp66
S', Not good'
p67
aS', small'
p68
aS', small'
p69
aS'though small'
p70
aS', horrible prepared'
p71
aa(lp72
S', dirty'
p73
aS', very dirty'
p74
aS', not clean'
p75
aS'common'
p76
aS'small'
p77
aS'very small'
p78
aS', incredibly small'
p79
aS'little'
p80
aS', very small, typical'
p81
aS', small'
p82
aS'little'
p83
aS'private small'
p84
aS', small'
p85
aS'private, small'
p86
aS', small'
p87
aS', small'
p88
aS', small'
p89
aS'small private'
p90
aS'small'
p91
aS'common'
p92
aa(lp93
S', quite narrow'
p94
aS', firm'
p95
aS', very thin comfortable'
p96
aa(lp97
S'worst'
p98
aS'difficult'
p99
aa(lp100
S', least'
p101
aS', Minimally stocked'
p102
aS', very thin'
p103
aS', few'
p104
ag104
ag104
aS', very careful'
p105
aS', careful'
p106
aS'worst'
p107
aS', very small'
p108
aS', hard'
p109
aS', awful'
p110
aS'flat'
p111
aS', slightly small'
p112
aS'little'
p113
aS'little'
p114
aa(lp115
S', scary'
p116
aS', less due'
p117
aS', tired'
p118
aS'dangerous'
p119
aS', closed'
p120
aS'Terrible'
p121
aS', not too bad'
p122
aa(lp123
S', not very good'
p124
aS'immediate, few'
p125
aS', quite creepy'
p126
aS', dangerous'
p127
aS', kinda rough'
p128
aS', sketchy, comfortable'
p129
aS', not very clean'
p130
aS'tough'
p131
aS'scary'
p132
aS', sketchy, uncomfortable'
p133
aS', not great'
p134
aS', rough'
p135
aS'historically rough'
p136
aS", n't too bad"
p137
aS', completely shady different'
p138
aS', little'
p139
aS'lively central, that rough'
p140
aS'disturbing'
p141
aS'dirty, that undesirable'
p142
aS'very bad close'
p143
aS", n't as bad"
p144
aS', rough'
p145
aS', dirty'
p146
aS', full, of dangerous'
p147
aS", n't bad, able"
p148
aS', sketchy, right'
p149
aS'not Sketchy dangerous'
p150
aS', tough'
p151
aS', sketchy, pretty certainly standard convenient'
p152
aS', uncomfortable'
p153
aS', not safe'
p154
aS', harmless, least'
p155
aS', little'
p156
aS'terrible'
p157
aS', not very cosy'
p158
aS', rough'
p159
aS', rough'
p160
aS', rough'
p161
aS', absolutely horrific'
p162
aS'worst'
p163
aS'rough'
p164
aS', rough'
p165
aS'bad'
p166
aS', not perfect'
p167
aS'bad'
p168
aS'slightly sketchy'
p169
aS', of dangerous'
p170
aS', not as bad'
p171
aS', of shady'
p172
aS'rough'
p173
aS'Dangerous'
p174
aS', scary'
p175
aS', rough'
p176
aS', not nice'
p177
aS', edgy'
p178
aS', though easily tough maneuverable'
p179
aS', rough'
p180
aS", not nicest, n't dangerous"
p181
aS', rough'
p182
aS'bad'
p183
aa(lp184
S'bad'
p185
aS'bad'
p186
aS'bad'
p187
aS'little'
p188
aS'Really messy'
p189
aS', small'
p190
aS', quite dusty'
p191
aS', not clean'
p192
aS'little'
p193
aS'Small'
p194
aS'little'
p195
aS'unfortunate homeless'
p196
aS'homeless, worst'
p197
aS', uncomfortable'
p198
aS'dangerous, aware'
p199
aS'not very good small'
p200
aS', dirty'
p201
aS', less'
p202
aS', careful'
p203
aa(lp204
S', small'
p205
aS', small'
p206
aS', terribly small'
p207
aS', private, not too bad'
p208
aS', not very nice big'
p209
aS', small'
p210
aS'private common'
p211
aS'few'
p212
aS'half'
p213
aS', small'
p214
aS', small'
p215
aS', small'
p216
aS', small'
p217
aS', small'
p218
aS'common'
p219
aS'common'
p220
aS'depressing'
p221
aS', very small'
p222
aS'cold'
p223
aS', small'
p224
aS'small simple'
p225
aS'small'
p226
aS', even tough'
p227
aS', small'
p228
aS', of noisy due'
p229
aS'small'
p230
aS', small'
p231
aS', enough long'
p232
aS', small'
p233
aS', small'
p234
aS', small'
p235
aS', small'
p236
aS', very small'
p237
aS'very small'
p238
aS'Not much'
p239
aS', small'
p240
aS'Small decent'
p241
aS', cold'
p242
aS'small'
p243
aa(lp244
S'late'
p245
aS'late'
p246
aS'long'
p247
aa(lp248
S'amazing'
p249
aS', clean'
p250
aS', clean'
p251
aS', perfect'
p252
aS', nice'
p253
aS'Very clean'
p254
aS', really well very located clean'
p255
aS'cute'
p256
aS', very great close'
p257
aS', great'
p258
aS', very clean'
p259
aS', very beautiful'
p260
aS', cozy'
p261
aS', beautiful clean'
p262
aS', lovely'
p263
aS'Very clean'
p264
aS', minimal, barren clean'
p265
aS', very nice'
p266
aS'very Nice central'
p267
aS', very clean'
p268
aS', nice'
p269
aS'Great'
p270
aS', decent'
p271
aS'Very charming lovely'
p272
aS', clean'
p273
aS', very cute'
p274
aS'really nice'
p275
aS', clean'
p276
aS', clean'
p277
aS'nice clean'
p278
aS'Great cozy'
p279
aS', very nice close'
p280
aS', nice'
p281
aS', great'
p282
aS', perfect'
p283
aS', great'
p284
aS'clean'
p285
aS', great'
p286
aS'Great'
p287
aS'Great'
p288
aS', great'
p289
aS', great'
p290
aS', very confortable'
p291
aS', comfortable sunny'
p292
aS', great'
p293
aS', nice'
p294
aS', very spacious'
p295
aS', adorable'
p296
aS'perfect'
p297
aS', easy'
p298
aS'very Great little central'
p299
aS', cozy'
p300
aS', perfect'
p301
aS', clean'
p302
aS', very clean'
p303
aS'better'
p304
aS', superb clean'
p305
aS', incredibly clean'
p306
aS', very clean'
p307
aS'very bright clean'
p308
aS', great'
p309
aS', comfortable'
p310
aS', old, such'
p311
aS'Nice'
p312
aS', very clean'
p313
aS', cozy'
p314
aS', fine'
p315
aS', nice'
p316
aS', clean'
p317
aS', clean'
p318
aS', very safe'
p319
aS', very nice'
p320
aS', clean'
p321
aS', great'
p322
aS', clean'
p323
aS', comfortable quiet'
p324
aS', totally clean ready'
p325
aS', clean'
p326
aS'Great'
p327
aS', great'
p328
aS'5$4, very clean'
p329
aS'Great little'
p330
aS'wonderful top, that'
p331
aS', wonderful'
p332
aS'Great'
p333
aS', nice'
p334
aS', nice'
p335
aS', tidy'
p336
aS', clean'
p337
aS', very little nice less'
p338
aS', very nice'
p339
aS', beautiful'
p340
aS'very comfy'
p341
aS', clean'
p342
aS', clean'
p343
aS', visually very nice'
p344
aS', super'
p345
aS', beautiful'
p346
aS', amazing'
p347
aS', very close'
p348
aS', safe'
p349
aS', great'
p350
aS', clean'
p351
aS', perfect'
p352
aS', large'
p353
aS', really clean'
p354
aS'beautiful comfortable'
p355
aS'clean'
p356
aS', comfortable'
p357
aS', easy'
p358
aS', nice'
p359
aS'Nice'
p360
aS'very clean'
p361
aS'nice clean'
p362
aS', clean'
p363
aS'Great great'
p364
aS'marvelous'
p365
aS', fairly close'
p366
aS'pretty awesome'
p367
aS', tidy'
p368
aS', really nice'
p369
aS', beautiful'
p370
aS', spacious, very easy'
p371
aS', clean'
p372
aS'beautiful'
p373
aS'secure'
p374
aS', fantastic'
p375
aS'whole, very clean'
p376
aS', very clean'
p377
aS', great'
p378
aS', very clean'
p379
aS', very clean'
p380
aS', small, right'
p381
aS'amazing'
p382
aS'nice'
p383
aS', OK'
p384
aa(lp385
S', enough clean'
p386
aS', adequate'
p387
aS'pretty Shared spartan'
p388
aS', clean'
p389
aS', clean'
p390
aS'very private clean'
p391
aS'decent sized'
p392
aS'communal, pleasant'
p393
aS', clean'
p394
aS'public, clean'
p395
aS', very clean'
p396
aS', really clean'
p397
aS', very clean'
p398
aS'clean'
p399
aS'own'
p400
aS', very clean'
p401
aS', clean'
p402
aS', ready'
p403
aS', very clean'
p404
aS', clean'
p405
aS', much'
p406
aS', clean'
p407
aS', very clean'
p408
aS', also clean'
p409
aS'also clean'
p410
aS', clean'
p411
aS', very clean'
p412
aS'communal, super'
p413
aS'full'
p414
aS', clean, which great'
p415
aS', clean'
p416
aS', clean'
p417
aS', old'
p418
aS', ok'
p419
aS'full'
p420
aS', busy'
p421
aS', very clean'
p422
aS'clean'
p423
aS'Private, very clean'
p424
aS', clean'
p425
aS', small, clean'
p426
aS'own'
p427
aS'private, nice'
p428
aS'own'
p429
aS', not available most'
p430
aS', clean'
p431
aS', very clean, very affordable'
p432
aS'shared, clean'
p433
aS', very clean'
p434
aS', clean'
p435
aS'clean'
p436
aS'own spacious big'
p437
aS'huge private'
p438
aS'clean'
p439
aS'huge private'
p440
aS', large'
p441
aS', clean'
p442
aS', very clean'
p443
aS', clean'
p444
aS', super'
p445
aS', as good'
p446
aS', clean'
p447
aS'shared, clean'
p448
aS', exceptionally clean'
p449
aS', clean'
p450
aS', perfect'
p451
aS'shared, clean'
p452
aS', clean'
p453
aS', pretty right clean'
p454
aa(lp455
S'good'
p456
aS', comfortable'
p457
aS'comfortable'
p458
aS', very comfortable'
p459
aS'super comfy double'
p460
aS'Clean cheap'
p461
aS', very comfortable'
p462
aS'own'
p463
aS', comfortable'
p464
aS'super comfortable'
p465
aS'real'
p466
aS'great'
p467
aS', really comfortable'
p468
aS'Comfortable'
p469
aS'comfy fast'
p470
aS'very comfy'
p471
aS', comfortable'
p472
aS', perfectly soft'
p473
aS'Great'
p474
aS'comfortable'
p475
aS', comfortable'
p476
aS'Nice'
p477
aS', totally comfortable'
p478
aS'Comfy good'
p479
aS'very comfortable'
p480
aS'Clean comfortable'
p481
aS'great comfy'
p482
aS', very cozy'
p483
aS', cozy'
p484
aS', awesome'
p485
aS'large'
p486
aS'large'
p487
aS', very comfortable, great'
p488
aS'comfortable'
p489
aS', very comfy'
p490
aS', basically clean, better'
p491
aS'comfortable'
p492
aS', comfortable'
p493
aS'clean comfortable'
p494
aS'nice'
p495
aS', comfortable'
p496
aS', really comfortable'
p497
aS'comfortable'
p498
aS', very comfortable'
p499
aS', comfortable'
p500
aS'comfortable clean'
p501
aS'very comfortable'
p502
aS'Comfortable'
p503
aS', comfortable'
p504
aS', reasonably sized'
p505
aS', very comfortable'
p506
aS'incredibly comfortable'
p507
aS'Very comfy sized'
p508
aS', most comfortable'
p509
aS'most phenomenally comfortable'
p510
aS'best'
p511
aS'big comfortable'
p512
aS', huge'
p513
aS', fantastic'
p514
aS'own'
p515
aS', more, big, more'
p516
aS', comfortable'
p517
aS', huge'
p518
aS'Comfortable'
p519
aS', comfortable'
p520
aS', great'
p521
aS', very comfortable'
p522
aS', super'
p523
aS'nice clean'
p524
aS'very good'
p525
aS'comfortable'
p526
aS', comfortable'
p527
aS'comfortable'
p528
aS'Comfortable'
p529
aS'comfortable'
p530
aS'very convenient'
p531
aS'double, comfortable'
p532
aS', redone nice'
p533
aS', comfortable'
p534
aS', comfortable'
p535
aS', nice'
p536
aS', really comfortable'
p537
aS', amazing'
p538
aS', comfortable, very clean'
p539
aS'very comfortable'
p540
aS', amazingly comfortable'
p541
aS'clean comfortable'
p542
aS'cozy'
p543
aS'comfortable'
p544
aS', cozy'
p545
aS'new'
p546
aS', comfortable'
p547
aS', surprisingly comfortable'
p548
ag548
aS'Not fancy good'
p549
aS', comfortable'
p550
aS', good'
p551
aS', very comfortable, great'
p552
aS'good'
p553
aS'best'
p554
aS', quite comfortable'
p555
aa(lp556
S'great'
p557
aS'pleasant'
p558
aS'wonderful'
p559
aS'good'
p560
aS'great'
p561
aS'Great'
p562
aS'good'
p563
aS'great'
p564
aS'good'
p565
aS'Great'
p566
aS'very nice'
p567
aS', great'
p568
aS', Overall fine'
p569
aS'first'
p570
aS'good'
p571
aS'great'
p572
aS'great'
p573
aS'great'
p574
aS'excellent'
p575
aS'very good'
p576
aS'great first'
p577
aS'great'
p578
aS'better'
p579
aS'wonderful'
p580
aS'really good'
p581
aS'very good'
p582
aS'first great'
p583
aS'good first'
p584
aS'positive'
p585
aS'good'
p586
aS'Great'
p587
aS'very smooth'
p588
aS'great'
p589
aS'all nice low key close'
p590
aS'Good'
p591
aS', great'
p592
aS'good'
p593
aS'Great'
p594
aS'great'
p595
aS'good, better'
p596
aS'great'
p597
aS'better first'
p598
aS'better'
p599
aS'great'
p600
aS'new'
p601
aS', wonderful'
p602
aS'very informative'
p603
aS'Great'
p604
aS'Great overall'
p605
aS'interesting'
p606
aS'great'
p607
aS'Great'
p608
aS'good'
p609
aS'great'
p610
aS'very good, that'
p611
aS'good'
p612
aS'good'
p613
aS'very pleasant'
p614
aS'wonderful'
p615
aS'incredible'
p616
aS'overall, great'
p617
aS'such great'
p618
aS'first'
p619
aS'easy'
p620
aS'Great'
p621
aS'Good'
p622
aS'whole'
p623
aS'very pleasant'
p624
aS'very pleasant'
p625
aS'wonderful'
p626
aS'new'
p627
aS'overall, great'
p628
aS'Great, very clean'
p629
aS'good'
p630
aS'great'
p631
aS'whole, very easy'
p632
aS'Great'
p633
aS'good'
p634
aS'comfortable'
p635
aS'wonderful'
p636
aS'great'
p637
aS'nice'
p638
aS'great first'
p639
aS'Overall excellent'
p640
aS'great'
p641
aS'good'
p642
aS'Awesome'
p643
aS'wonderful'
p644
aS'great'
p645
aS'all great'
p646
aS'great'
p647
aS'nice'
p648
aS'great'
p649
aS'Good'
p650
aS'first'
p651
aS'good'
p652
aS'great'
p653
aa(lp654
S'very Great attentive'
p655
aS'good'
p656
aS', very communicative'
p657
aS', even available late'
p658
aS'responsible'
p659
aS', good'
p660
aS', great'
p661
aS', enough nice'
p662
aS', very helpful, very convenient'
p663
aS', very friendly, quick'
p664
aS'great'
p665
aS', nice'
p666
aS", n't even which available"
p667
aS', very easy'
p668
aS', sure'
p669
aS', very communicative'
p670
aS', very responsive'
p671
aS', helpful'
p672
aS', super easy'
p673
aS', excellent, accommodating'
p674
aS', excellent, flexible'
p675
aS'amazing'
p676
aS', able'
p677
aS', clean'
p678
aS', nice'
p679
aS', very helpful'
p680
aS'great'
p681
aS', happy'
p682
aS', nice'
p683
aS', nice'
p684
aS', very attentive'
p685
aS', very responsive'
p686
aS', very responsive'
p687
aS', very nice'
p688
aS', very prompt, helpful'
p689
aS', always available'
p690
aS', very helpful'
p691
aS', Incredibly well organised'
p692
aS'great'
p693
aS', very reactive'
p694
aS', easy'
p695
aS', very hospitable'
p696
ag696
aS', very prompt'
p697
ag697
aS', very easy'
p698
aS', very quick'
p699
aS', really helpful'
p700
aS', very nice'
p701
aS', pretty very good handy'
p702
ag702
aS', easy'
p703
aS', quick'
p704
aS'great'
p705
aS', very accommodating'
p706
aS', very helpful'
p707
aS', easy'
p708
aS', great'
p709
aS'very nice'
p710
aS', very responsive'
p711
aS', great'
p712
aS', quick, really helpful'
p713
aS', really helpful'
p714
aS', very accommodating'
p715
aS', welcome'
p716
aS'Good'
p717
aS'friendly'
p718
aS', very responsive'
p719
aS', adequate'
p720
aS', very responsible'
p721
aS', very accessible'
p722
aS', easy'
p723
ag723
aS'very accessible'
p724
aS', available'
p725
aS', excellent'
p726
aS', fast'
p727
aS', excellent'
p728
aS', safe'
p729
ag729
aS', very helpful'
p730
aS', very friendly'
p731
aS', prompt easy'
p732
aS', very friendly, helpful'
p733
aS', very clean'
p734
ag734
aS', charming'
p735
aS', very nice'
p736
aS', helpful'
p737
aS'very great helpful'
p738
aS', very smooth, very responsive, sure'
p739
aS', really quick'
p740
aS'nice'
p741
aS', helpful'
p742
aS', very polite&helpful'
p743
aS', very good'
p744
aS', available'
p745
aS', easy'
p746
aS', easy flexible'
p747
aS'great'
p748
aS'great'
p749
aS', very receptive'
p750
aS', very prompt'
p751
ag751
aS', very helpful'
p752
aS', great'
p753
aS'great'
p754
aS', super nice'
p755
aS', very quick'
p756
aS', happy'
p757
aS', apt'
p758
aS', very prompt helpful'
p759
aS', very friendly'
p760
aS', very responsive'
p761
aS', safe'
p762
ag762
aS', very friendly'
p763
aS', safe'
p764
ag764
aS'great'
p765
aS', nice'
p766
aS', nice, full'
p767
aS', really great'
p768
ag768
aS', super accommodating'
p769
ag769
aS', very friendly'
p770
ag770
aS', very amenable'
p771
aS', better'
p772
aS', great'
p773
aS'very attentive'
p774
aS', very nice'
p775
aS', very responsive'
p776
aS', very easy'
p777
aS', very easy'
p778
aS'great'
p779
aS', clean'
p780
aS', great'
p781
aS', safe'
p782
aS', quick'
p783
aS', great'
p784
aS', amazing'
p785
aS', very helpful'
p786
aS'good'
p787
aS', very precise'
p788
ag788
aS'Wonderful'
p789
aS', nice'
p790
aS', great, welcome'
p791
aS', very quick'
p792
aS', super'
p793
aS', very easy'
p794
ag794
aS', very nice'
p795
aS', very helpful'
p796
aS', very good'
p797
aS', sure'
p798
aS', easy, helpful'
p799
aS', very easy, prompt'
p800
aS', very responsive'
p801
aS', great'
p802
aS', very patient responsive'
p803
aS'Such great, very helpful'
p804
aS', very helpful'
p805
aS', incredibly easy'
p806
aS', constantly available'
p807
aS', super helpful'
p808
aS', clear'
p809
aS', very accommodating'
p810
aS', clean'
p811
aS'great'
p812
aS'Stellar easy'
p813
aS'Great'
p814
aS', helpful'
p815
aS', very helpful'
p816
aS', very accommodating'
p817
aS', very friendly'
p818
aS', friendly'
p819
aS'good'
p820
aS', nice'
p821
aS', incredibly easy, very responsive'
p822
aS', especially kind'
p823
aS'sweet'
p824
aS', great'
p825
aS'great'
p826
aS', quick, quite flexible'
p827
aS', quick'
p828
aS', very easy'
p829
aS'nice'
p830
aS'great'
p831
aS', really helpful'
p832
aS', friendly, nice'
p833
aS', nice'
p834
aS'Great'
p835
aS', good'
p836
aS', very good'
p837
aS', very accommodating'
p838
aS'cool'
p839
aS', nice'
p840
aS', just as much'
p841
aS', very responsive'
p842
aS', always responsive available'
p843
aS', very friendly'
p844
ag844
aS'great'
p845
aS'great'
p846
aS'awesome'
p847
aS'perfect'
p848
aS'really nice'
p849
aS', very easy'
p850
aS'great'
p851
aS'very great worried'
p852
aS', very easy'
p853
aS'perfect'
p854
aS', awesome'
p855
aS'wonderful'
p856
aS'great'
p857
aS'excellent'
p858
aS', very flexible'
p859
aS', very attentive'
p860
aS', very responsive'
p861
aS', very very noisy'
p862
aS', more'
p863
aS'very considerate'
p864
aS'great'
p865
aS', quick'
p866
aS', great'
p867
aS'great'
p868
aS'great'
p869
aS', very responsible'
p870
aS'absolutely uncomplicated great'
p871
aS'flat, perfect'
p872
aS', great, very easy'
p873
aS', very easy'
p874
aS', very nice'
p875
aS', very quick'
p876
aS'nice, very quick'
p877
aS', great'
p878
aS'Very responsive'
p879
aS'attentive'
p880
aS', VERY accommodating'
p881
aS'awesome'
p882
aS'fantastic'
p883
aS'great'
p884
aS', very accommodating'
p885
ag885
aS', super amazing accommodating'
p886
ag886
aS'fantastic'
p887
aS'really nice'
p888
aS'great'
p889
aS'awesome'
p890
aS'great'
p891
aS'even better'
p892
aS'great, very easy'
p893
aS'great'
p894
aS'great'
p895
aS'Excellent'
p896
aS', great'
p897
aS', especially helpful'
p898
aS'excellent'
p899
aS', very quick'
p900
aS'Great'
p901
aS', very helpful'
p902
aS', awesome'
p903
aS', very nice'
p904
aS', great'
p905
aS', very communicative prompt'
p906
aS', great'
p907
aS', nice'
p908
aS', very hospitable'
p909
aS'really good, sure, comfortable'
p910
aS'good'
p911
aS', quite flexible, awesome'
p912
aS'nice easy'
p913
aS'good'
p914
aS'great'
p915
aS'great'
p916
aS'Fantastic'
p917
aS', great'
p918
aS', very reactive'
p919
aS', very helpful'
p920
aS', great'
p921
aS', fast'
p922
aS', helpful'
p923
ag923
aS', very friendly'
p924
aS', super responsive'
p925
aS', friendly'
p926
ag926
aS', helpful'
p927
aS'Very friendly'
p928
aS'great'
p929
aS', very responsive'
p930
aS', helpful'
p931
aS', great'
p932
aS', nice'
p933
aS', always available'
p934
ag934
aS', easy'
p935
aS', easy'
p936
aS', very quick'
p937
aS', easy'
p938
aS', very great attentive, which, safe'
p939
aS', very great attentive, which, safe'
p940
aS', easily contactable'
p941
aS', excellent'
p942
aS', easy'
p943
aS', very accommodating'
p944
ag944
aS'Very communicative'
p945
aS'perfect'
p946
aS'wonderfully attentive'
p947
aS', sure'
p948
aS', good'
p949
aS', very quick'
p950
aS', small, really nice'
p951
aS', very available'
p952
aS', great'
p953
aS'nice'
p954
aS', clear'
p955
aS', wonderfully responsive'
p956
aS', simply amazing'
p957
ag957
aS', simply amazing'
p958
ag958
aS', very responsive'
p959
aS'great'
p960
aS'very accommodating'
p961
aS'great'
p962
aS'incredible'
p963
aS'easy'
p964
aS', helpful'
p965
aS', very friendly'
p966
aS', incredibly accommodating'
p967
aS', very quick'
p968
aS', helpful'
p969
aS', very helpful'
p970
aS', helpful'
p971
ag971
aS'Great'
p972
aS', awesome'
p973
aS', very quick'
p974
aS'great'
p975
aS', very helpful'
p976
aS', very responsive'
p977
aS'very gracious, sure'
p978
aS', very helpful'
p979
aS', great'
p980
aS'fantastic'
p981
aS'great, very accommodating'
p982
aS'very great helpful'
p983
aS'amazing'
p984
aS'great close'
p985
aS'quick'
p986
aS', great'
p987
aS'excellent'
p988
aS', very accessible'
p989
aS'great'
p990
aS'exceptional'
p991
aS', very friendly'
p992
aS', great'
p993
aS'awesome'
p994
aS', very welcome'
p995
aS'great, quick'
p996
aS', nice'
p997
aS'good'
p998
aS'excellent'
p999
aS'great'
p1000
aS', great'
p1001
aS', very understanding'
p1002
aS', really communicative'
p1003
aS', helpful'
p1004
aS'fantastic'
p1005
aS'great'
p1006
aS'great'
p1007
aS', very comfortable'
p1008
aS'gracious, very comfortable'
p1009
aS', very helpful'
p1010
aS', quick'
p1011
aS'great, quick'
p1012
aS', very quick'
p1013
aS', very helpful'
p1014
aS', incredibly communicative'
p1015
aS'great'
p1016
aS', great'
p1017
aS', really nice'
p1018
aS', secure'
p1019
aS', very easy, very helpful'
p1020
aS', super'
p1021
aS', very nice'
p1022
aS'great'
p1023
aS', easy'
p1024
aS', very responsive, which'
p1025
aS', great'
p1026
aS'pleasant'
p1027
aS', very helpful'
p1028
aS'great'
p1029
aS', amazing'
p1030
aS', helpful'
p1031
aS', very responsive'
p1032
aS', really helpful'
p1033
ag1033
aS', great'
p1034
aS', very welcoming'
p1035
ag1035
aS', very easy'
p1036
aS'great'
p1037
aS', easy, great'
p1038
aS', really easy'
p1039
aS', how thoughtful'
p1040
aS'excellent'
p1041
aS'great'
p1042
aS', warm'
p1043
ag1043
aS', incredible'
p1044
aS'excellent'
p1045
aS', friendly'
p1046
ag1046
aS'lovely'
p1047
aS'Good'
p1048
aS', great'
p1049
aS', friendly'
p1050
aS', pleased'
p1051
aS'awesome'
p1052
aS'professional'
p1053
aS', very considerate'
p1054
aS'Great'
p1055
aS', very responsive'
p1056
aS'great'
p1057
aS'great'
p1058
aS'very friendly'
p1059
aS', very hospitable'
p1060
aS'nice'
p1061
aS', great'
p1062
aS', great'
p1063
aS', very accommodating'
p1064
aS', really friendly'
p1065
aS'nice'
p1066
aS', helpful'
p1067
aS'great'
p1068
aS'excellent'
p1069
aS'outstanding'
p1070
aS'very friendly'
p1071
aS'most accommodating'
p1072
aS', nice'
p1073
aS', totally clear'
p1074
aS'wonderful'
p1075
aS', helpful'
p1076
aS'great'
p1077
aS', incredibly friendly, sure'
p1078
aS', able'
p1079
aS'fantastic'
p1080
aS'good good'
p1081
aS'Great'
p1082
aS'Great'
p1083
aS'Friendly'
p1084
aS', very friendly, more'
p1085
aS'wonderful'
p1086
aS'very accommodating'
p1087
aS', friendly'
p1088
aS', super helpful'
p1089
aS', great'
p1090
aS', really helpful'
p1091
aS', very nice'
p1092
aS', comfortable'
p1093
ag1093
aS', very responsive'
p1094
aS', really nice'
p1095
aS', quick'
p1096
aS'great'
p1097
aS', very understanding'
p1098
aS', smooth'
p1099
aS', easy'
p1100
aS', very welcome'
p1101
aS', very communicative'
p1102
aS', very accommodating'
p1103
aS', sure'
p1104
aS', really helpful'
p1105
aS', very clean, helpful'
p1106
aS', very clean, helpful'
p1107
aS', helpful'
p1108
aS', very friendly'
p1109
ag1109
aS'great'
p1110
aS', great'
p1111
aS', very prompt'
p1112
aS', incredibly accommodating'
p1113
ag1113
aS', really easy'
p1114
aS', very friendly'
p1115
aS', super responsive'
p1116
ag1116
aS', very nice due'
p1117
aS', great'
p1118
aS', very responsive'
p1119
aS', nice'
p1120
aS', very easy'
p1121
ag1121
aS', very quick'
p1122
aS', really friendly'
p1123
aS'great'
p1124
aS'great'
p1125
aS', very nice'
p1126
ag1126
aa(lp1127
S'very convenient'
p1128
aS'great'
p1129
aS'Good'
p1130
aS'very as good much'
p1131
aS'Great'
p1132
aS'good'
p1133
aS', great'
p1134
aS', easy'
p1135
aS'cool'
p1136
aS', good'
p1137
aS'Great'
p1138
aS', not bad'
p1139
aS', perfect'
p1140
aS', pretty good'
p1141
aS'Excellent close'
p1142
aS', handy'
p1143
aS'Good'
p1144
aS', very convenient'
p1145
aS', very convenient'
p1146
aS', very close'
p1147
aS'great'
p1148
aS'great'
p1149
aS'comfortable'
p1150
aS'Great'
p1151
aS'Great'
p1152
aS'great central'
p1153
aS'clean'
p1154
aS'Very clean'
p1155
aS', great'
p1156
aS'Good'
p1157
aS'Great easy'
p1158
aS', great'
p1159
aS'Great'
p1160
aS'Great'
p1161
aS', good'
p1162
aS', great'
p1163
aS'perfect'
p1164
aS'good, public'
p1165
aS'wise, fine'
p1166
aS', great'
p1167
aS'ideal'
p1168
aS'Great'
p1169
aS', very close'
p1170
aS', great, convenient'
p1171
aS'convenient clean'
p1172
aS'great'
p1173
aS'central, really walkable'
p1174
aS', great'
p1175
aS', very good'
p1176
aS', perfect'
p1177
aS'very good'
p1178
aS', good'
p1179
aS'great'
p1180
aS'perfect'
p1181
aS'Great'
p1182
aS', perfect'
p1183
aS'Great'
p1184
aS', pretty convenient, right'
p1185
aS'Good central'
p1186
aS', good'
p1187
aS', perfect'
p1188
aS', very perfect central'
p1189
aS', good, easy'
p1190
aS'very excellent clean'
p1191
aS', nice'
p1192
aS', very convenient'
p1193
aS', perfect'
p1194
aS'great'
p1195
aS', very close'
p1196
aS', very convenient'
p1197
aS'Great'
p1198
aS', very convenient'
p1199
aS'nice'
p1200
aS', really close'
p1201
aS', perfect'
p1202
aS', okay'
p1203
aS'Good'
p1204
aS'great'
p1205
aS'perfect'
p1206
aS', good'
p1207
aS'perfect'
p1208
aS'good close'
p1209
aS'good'
p1210
aS'very good'
p1211
aS', close safe'
p1212
aS', great'
p1213
aS'nice'
p1214
aS'really great'
p1215
aS'Good'
p1216
aS'best, close'
p1217
aS', perfect'
p1218
aS'great'
p1219
aS'very good'
p1220
aS', very close'
p1221
aS', safe'
p1222
aS'great'
p1223
aS', better'
p1224
aS', most ideal'
p1225
aS'great'
p1226
aS'Excellent'
p1227
aS'Good'
p1228
aS'very convenient'
p1229
aS'Great'
p1230
aS'Central easy'
p1231
aS'very convenient'
p1232
aS'great'
p1233
aS', very convenient'
p1234
aS', fine, next'
p1235
aS', great'
p1236
aS'good'
p1237
aS'very good'
p1238
aS'great'
p1239
aS', great'
p1240
aS', able'
p1241
aS'very nice'
p1242
aS', very convenient'
p1243
aS'Great'
p1244
aS'Great'
p1245
aS'fantastic'
p1246
aS'Great'
p1247
aS', perfect'
p1248
aS'great'
p1249
aS'Great central'
p1250
aS', really great'
p1251
aS'central, easy'
p1252
aS'Great'
p1253
aS', great'
p1254
aS', great'
p1255
aS'central, which easy'
p1256
aS', great'
p1257
aS'very convenient'
p1258
aS', super close'
p1259
aS', interesting'
p1260
aS', nice'
p1261
aS'great'
p1262
aS'great central'
p1263
aS'very conveniently close'
p1264
aS'very convenient'
p1265
aS'Great'
p1266
aS'very convenient'
p1267
aS'Excellent close'
p1268
aS', very close, that'
p1269
aS'Great, easily that walkable'
p1270
aS'great'
p1271
aS', perfect'
p1272
aS'great'
p1273
aS'very accessible'
p1274
aS'great'
p1275
aS'Cheap'
p1276
aS', very near'
p1277
aS'great'
p1278
aS', great'
p1279
aS'great'
p1280
aS', very convenient'
p1281
aS'great'
p1282
aS'great'
p1283
aS'good'
p1284
aS'good'
p1285
aS', good'
p1286
aS', great'
p1287
aS', very convenient'
p1288
aS'very good'
p1289
aS'Excellent'
p1290
aS'Great'
p1291
aS'Nice comfortable'
p1292
aS'Good'
p1293
aS'Great'
p1294
aS'good'
p1295
aS'wonderful'
p1296
aS'Great'
p1297
aS'Great easy'
p1298
aS', accessible'
p1299
aS', very handy'
p1300
aS', good'
p1301
aS', great'
p1302
aS', absolutely perfect'
p1303
aS'perfect'
p1304
aS'great, very conveniently situated'
p1305
aS', not as cute'
p1306
aS'amazing'
p1307
aS'Fantastic'
p1308
aS', excellent'
p1309
aS'Great'
p1310
aS'very good'
p1311
aS'excellent'
p1312
aS'excellent'
p1313
aS'Great'
p1314
aS'good'
p1315
aS', very close'
p1316
aS', great'
p1317
aS', good'
p1318
aS', very important'
p1319
aS'great central'
p1320
aS', great'
p1321
aS', perfect'
p1322
aS', great less'
p1323
aS'Great central'
p1324
aS'clean excellent'
p1325
aS'Good'
p1326
aS'great'
p1327
aS', good'
p1328
aS', very close'
p1329
aS'Clean'
p1330
aS', very convenient'
p1331
aS'fantastic'
p1332
aS'Nice'
p1333
aS', good'
p1334
aS'Great'
p1335
aS'good'
p1336
aS'very perfect clean'
p1337
aS'perfect'
p1338
aS', perfect'
p1339
aS', great'
p1340
aS', great'
p1341
aS'nearby, great'
p1342
aS', right'
p1343
aS'Excellent'
p1344
aS', wonderful'
p1345
aS', great'
p1346
aS'Great'
p1347
aS'Good'
p1348
aS'Nice easy'
p1349
aS', perfect'
p1350
aS', pretty good'
p1351
aS'good'
p1352
aS'great'
p1353
aS'great'
p1354
aS', any better, central'
p1355
aS', central, easy'
p1356
aS'awesome'
p1357
aS', very safe'
p1358
aS'great'
p1359
aS'great'
p1360
aS', great'
p1361
aS'Great'
p1362
aS'Great'
p1363
aS'very good'
p1364
aS', good'
p1365
aS', very convenient'
p1366
aS', great'
p1367
aS', great walkable'
p1368
aS', great'
p1369
aS', safe'
p1370
aS', nice'
p1371
aS', very Nice convenient'
p1372
aS', safe'
p1373
aS'excellent'
p1374
aS'Great'
p1375
aS'great'
p1376
aS'perfect'
p1377
aS', great'
p1378
aS'great'
p1379
aa(lp1380
S', best'
p1381
aS", n't once great"
p1382
aS', perfect'
p1383
aS'best'
p1384
aS"actual, n't great"
p1385
aS', nice'
p1386
aS'much'
p1387
aS", n't great, unsafe"
p1388
aS'best'
p1389
aS', best, not unsafe'
p1390
aS', nice, completely shady different'
p1391
aS', best'
p1392
aS'general'
p1393
aS'very lively'
p1394
aS', pretty central'
p1395
aS'such great'
p1396
aS', fine'
p1397
aS', great'
p1398
aS', good, safe, best'
p1399
aS', greatest, close'
p1400
aS', fine'
p1401
aS'more dicey'
p1402
aS'pretty rough'
p1403
aS', happy'
p1404
aS', fine'
p1405
aS'interesting'
p1406
aS'Fun'
p1407
aS', safe'
p1408
aS', pretty great'
p1409
aS'safe'
p1410
aS'pretty gritty'
p1411
aS'great'
p1412
aS'interesting'
p1413
aS'nice'
p1414
aS', right'
p1415
aS', conveniently safe'
p1416
aS', okay'
p1417
aS'nice'
p1418
aS', good'
p1419
aS', not more pleasant'
p1420
aS", n't great"
p1421
aS'best'
p1422
aS", n't great"
p1423
aS'pretty bad, apt quiet'
p1424
aS', pretty rough'
p1425
aS", n't best"
p1426
aS', safe'
p1427
aS', loud'
p1428
aS'cool'
p1429
aS'different nice'
p1430
aS'many wonderful'
p1431
aS'best, unsafe'
p1432
aS", n't great"
p1433
aS', great'
p1434
aa(lp1435
S'Nice'
p1436
aS'nice great'
p1437
aS', safe'
p1438
aS'nice'
p1439
aS'good'
p1440
aS'safe'
p1441
aS', clean'
p1442
aS'great'
p1443
aS'cheap'
p1444
aS'Good'
p1445
aS'good'
p1446
aS'Great'
p1447
aS'great ethiopian'
p1448
aS', clean'
p1449
aS', good'
p1450
aS', comfortable'
p1451
aS'new'
p1452
aS', great'
p1453
aS', cozy'
p1454
aS'best'
p1455
aS', very safe'
p1456
aS', pretty nice'
p1457
aS'good'
p1458
aS'great'
p1459
aS'Great'
p1460
aS'really nice'
p1461
aS'good'
p1462
aS', clean'
p1463
aS'Cool cool'
p1464
aS', accurate'
p1465
aS', great'
p1466
aS', great'
p1467
aS', clean'
p1468
aS'Great'
p1469
aS', great'
p1470
aS', great'
p1471
aS'very nice'
p1472
aS'Great'
p1473
aS', fantastic'
p1474
aS'nice'
p1475
aS'delightful'
p1476
aS', clean'
p1477
aS'Great close'
p1478
aS', perfect'
p1479
aS'very nice'
p1480
aS', awesome'
p1481
aS', fantastic perfect'
p1482
aS'nice'
p1483
aS', great'
p1484
aS'good'
p1485
aS'online Clean accurate'
p1486
aS'Great simple'
p1487
aS'Great'
p1488
aS'Good'
p1489
aS', great'
p1490
aS'very Great clean'
p1491
aS', nice'
p1492
aS'Great'
p1493
aS'Great'
p1494
aS', fine'
p1495
aS'great'
p1496
aS'great'
p1497
aS', clean'
p1498
aS'great'
p1499
aS'perfect'
p1500
aS', surprised, how affordable'
p1501
aS', more'
p1502
aS', great'
p1503
aS', very clean'
p1504
aS'Nice great'
p1505
aS'Clean'
p1506
aS', nice'
p1507
ag1507
aS'Amazing'
p1508
aS', clean'
p1509
aS', clean'
p1510
aS', cozy'
p1511
aS'very cozy'
p1512
aS'many'
p1513
aS'Nice'
p1514
aS', very clean'
p1515
aS'perfect'
p1516
aS', clean, great'
p1517
aS'nice'
p1518
aS', perfect'
p1519
aS', clean'
p1520
aS'comfortable'
p1521
aS', good'
p1522
aS'good clean'
p1523
aS', perfect'
p1524
aS', most'
p1525
aS'best'
p1526
aS', clean'
p1527
aS'Great'
p1528
aS'great'
p1529
aS', clean'
p1530
aS', accurate'
p1531
aS'great'
p1532
aS'great'
p1533
aS', enjoyable'
p1534
aS'Good clean'
p1535
aS'definitely inside decent safe'
p1536
aS'very nice'
p1537
aS'Nice'
p1538
aS'very good, not too far expensive'
p1539
aS'Lovely'
p1540
aS', great'
p1541
aS', great'
p1542
aS'perfect'
p1543
aS'right'
p1544
aS', clean'
p1545
aS', clean'
p1546
aS'really Awesome clean'
p1547
aS', very clean'
p1548
aS'clean'
p1549
aS', very comfortable'
p1550
aS', cozy'
p1551
aS'Great'
p1552
aS', Very awesome clean'
p1553
aS', very nice'
p1554
aS'pretty Great central'
p1555
aS', clean'
p1556
aS', good, very accessible'
p1557
aS', amazing'
p1558
aS', perfect'
p1559
aS'Great'
p1560
aS', very clean'
p1561
aS'Nice'
p1562
aS', easy'
p1563
aS'Great'
p1564
aS', nice'
p1565
aS'Great'
p1566
aS', cozy'
p1567
aS', very clean'
p1568
aS', great'
p1569
aS'Beautiful'
p1570
aS', perfect'
p1571
aS', beautiful'
p1572
aS'Cute'
p1573
aS'great'
p1574
aS'all important'
p1575
aS', great'
p1576
aS', very cozy'
p1577
aS'great, able'
p1578
aS'several great'
p1579
aS'great'
p1580
aS'Great small, sure'
p1581
aS', great'
p1582
aS'major'
p1583
aS'small, lovely'
p1584
aS', great'
p1585
aS', good'
p1586
aS'excellent'
p1587
aS', aware'
p1588
aS'very good'
p1589
aS'best'
p1590
aS'safe'
p1591
aS'good'
p1592
aS', very clean'
p1593
aS'Nice'
p1594
aS'very own'
p1595
aS', exactly as advertised'
p1596
aS', clean'
p1597
aS', very tidy'
p1598
aS'very Cute clean'
p1599
aS'Nice central'
p1600
aS', clean'
p1601
aS'ready'
p1602
aS'nice simple'
p1603
aS', cozy'
p1604
aS'good'
p1605
aS', perfect'
p1606
aS'perfect'
p1607
aS'nice'
p1608
aS'Nice'
p1609
aS', perfect'
p1610
aS'Nice'
p1611
aS'nice'
p1612
aS'Great'
p1613
aS'great'
p1614
aS'wonderful'
p1615
aS'perfect'
p1616
aS', great'
p1617
aS', very central, easy'
p1618
aS'great'
p1619
aS'Great'
p1620
aS'Great'
p1621
aS'safe'
p1622
aS'Great'
p1623
aS'perfect'
p1624
aS'nice'
p1625
aS'comfortable'
p1626
aS', clean'
p1627
aS', nice'
p1628
aS'up Awesome clean'
p1629
aS'great'
p1630
aS', great'
p1631
aS', great'
p1632
aS', cozy'
p1633
aS', nice'
p1634
aS'nice'
p1635
aS'Good'
p1636
aS'clean'
p1637
aS', quite decent'
p1638
aS', super convenient'
p1639
aS', perfect'
p1640
aS', nice'
p1641
aS', easy'
p1642
aS', clean'
p1643
aS', very confortable'
p1644
aS', comfortable'
p1645
aS'Great'
p1646
aS', cute'
p1647
aS', amazing'
p1648
aS', good'
p1649
aS'quick, close'
p1650
aS', fine'
p1651
aS'Nice'
p1652
aS'Great'
p1653
aS'pretty decent thai'
p1654
aS'nice'
p1655
aS', right'
p1656
aS', really close'
p1657
aS'good clean'
p1658
aS'good'
p1659
aS', small, clean'
p1660
aS'good'
p1661
aS', old'
p1662
aS'Super'
p1663
aS'Great'
p1664
aS'right'
p1665
aS', which easy'
p1666
aS', great'
p1667
aS'good'
p1668
aS'good'
p1669
aS', amazing, very accessible'
p1670
aS', very safe'
p1671
ag1671
aS', nice'
p1672
aS', very nice'
p1673
aS'Good'
p1674
aS', wonderful'
p1675
aS'clean'
p1676
aS'safe secure'
p1677
aS'Great clean'
p1678
aS'Great'
p1679
aS'fantastic'
p1680
aS', pretty good'
p1681
aS'great'
p1682
aS'perfect'
p1683
aS', really close'
p1684
aS', clean, very easy'
p1685
aS'Great'
p1686
aS'Great basic'
p1687
aS'great clean'
p1688
aS'Great'
p1689
aS'clean'
p1690
aS'Great'
p1691
aS'Great'
p1692
aS'nice'
p1693
aS'great'
p1694
aS', clean'
p1695
aS', very pretty'
p1696
aS'perfect'
p1697
aS', warm'
p1698
aS', very clean'
p1699
aS'comfortable'
p1700
aS', comfortable'
p1701
aS', older'
p1702
aS'Great'
p1703
aS', clean'
p1704
aS', right'
p1705
aS', very clean'
p1706
aS', very close'
p1707
aS', nice'
p1708
aS', clean'
p1709
aS', clean, very helpful'
p1710
aS'Nice'
p1711
aS'Great, very central'
p1712
aS', very very clean'
p1713
aS'Great'
p1714
aS', exactly advertised'
p1715
aS', perfect'
p1716
aS'pleasant'
p1717
aS'nice'
p1718
aS'good'
p1719
aS'ideal'
p1720
aS'fabulous, that'
p1721
aS', awesome'
p1722
aS'Nice'
p1723
aS'good'
p1724
aS'Great convenient'
p1725
aS', very clean'
p1726
aS'Excellent'
p1727
aS', very clean'
p1728
aS'Safe'
p1729
aS'clean'
p1730
aS', clean'
p1731
aS'very great'
p1732
aS'good'
p1733
aS'very high'
p1734
aS'ideal'
p1735
aS', very convenient'
p1736
aS', clean'
p1737
aS'great'
p1738
aS', easy'
p1739
aS'great'
p1740
aS'Good'
p1741
aS'great'
p1742
aS'great'
p1743
aS'friendly'
p1744
aS'best'
p1745
aS'nice'
p1746
aS'Great'
p1747
aS'pretty awesome'
p1748
aS'nice'
p1749
aS', nice'
p1750
aS'many'
p1751
aS'Clean'
p1752
aS'Great'
p1753
aS', very clean'
p1754
aS', very clean'
p1755
aS', clean, nice'
p1756
aS'best clean'
p1757
aS'beautiful'
p1758
aS', clean'
p1759
aS', clean'
p1760
aS', very neat'
p1761
aS'cheap'
p1762
aS'clean, that'
p1763
aS', great'
p1764
aS', very good'
p1765
aS', perfect'
p1766
aS', peaceful'
p1767
aS'Great'
p1768
aS'great'
p1769
aS', available'
p1770
aS'new'
p1771
aS'new'
p1772
aS', very fantastic comfortable'
p1773
aS'What great'
p1774
aS', great, very clean'
p1775
aS'great'
p1776
aS'good'
p1777
aS'great'
p1778
aS'Good'
p1779
aS'Good'
p1780
aS'great'
p1781
aS'great'
p1782
aS', better'
p1783
aS', easily accessible'
p1784
aS', great'
p1785
aS'very good'
p1786
aS'Nice'
p1787
aS', great'
p1788
aS'entire, very clean which'
p1789
aS'Nice'
p1790
aS', clean'
p1791
aS'Perfect'
p1792
aS', safe'
p1793
aS'Great'
p1794
aS', great'
p1795
aS', great'
p1796
aa(lp1797
S', decent'
p1798
aS', very simple clean'
p1799
aS', clean'
p1800
aS'safe enough'
p1801
aS', clean'
p1802
aS', accurate'
p1803
aS', clean'
p1804
aS', clean responsible'
p1805
aS', more spacious'
p1806
aS', far better'
p1807
aS'nice'
p1808
aS', nice'
p1809
aS', clean'
p1810
aS', very clean'
p1811
aS'Nice'
p1812
aS', clean'
p1813
aS', clean'
p1814
aS', very comfortable'
p1815
aS', easy'
p1816
aS', clean, more'
p1817
aS', clean'
p1818
aS'simple comfortable'
p1819
aS'clean private close'
p1820
aS', very clean'
p1821
aS', clean'
p1822
aS', clean'
p1823
aS', clean'
p1824
aS', clean'
p1825
aS', clean'
p1826
aS', really comfortable'
p1827
aS', very clean'
p1828
aS'nice, clean'
p1829
aS'Very clean'
p1830
aS', clean'
p1831
aS'great'
p1832
aS'Nice clean'
p1833
aS', comfortable'
p1834
aS', clean'
p1835
aS', comfortable'
p1836
aS', clean'
p1837
aS', really well located'
p1838
aS', quite clean'
p1839
aS', very clean'
p1840
aS'Nice'
p1841
aS', clean'
p1842
aS', pretty confortable'
p1843
aS', very neat, comfortable'
p1844
aS', very nice'
p1845
aS'fine'
p1846
aS', very clean, safe'
p1847
aS', clean'
p1848
aS', perfect'
p1849
aS'own private'
p1850
aS', clean'
p1851
aS'Large clean'
p1852
aS'Nice'
p1853
aS'Nice'
p1854
aS', very clean'
p1855
aS', nice'
p1856
aS', perfectly sized'
p1857
aS', clean'
p1858
aS'Very clean'
p1859
aS', better nice'
p1860
aS', ready earlier'
p1861
aS', very clean'
p1862
aS'comfortable'
p1863
aS', good'
p1864
aS', clean'
p1865
aS', clean'
p1866
aS', clean'
p1867
aS', clean'
p1868
aS', clean'
p1869
aS', pretty cool'
p1870
aS', delightful cute'
p1871
aS', very clean'
p1872
aS', clean'
p1873
aS', bright'
p1874
aS'Clean convenient'
p1875
aS', cute'
p1876
aS', very nice'
p1877
aS', very clean'
p1878
aS', really clean'
p1879
aS', very small clean'
p1880
aS', nice'
p1881
aS', very clean'
p1882
aS', quiet easy'
p1883
aS', clean'
p1884
aS'clean'
p1885
aS', which nice'
p1886
aS', nice'
p1887
aS', quite nice'
p1888
aS'Nice'
p1889
aS', clean'
p1890
aS'Comfortable European'
p1891
aS'Nice'
p1892
aS', clean'
p1893
aS'nice private'
p1894
aS', very clean'
p1895
aS', fine'
p1896
aS'clean'
p1897
aS', very clean'
p1898
aS', clean'
p1899
aS', clean, good'
p1900
aS', nice'
p1901
aS', very clean'
p1902
aS', very comfortable'
p1903
aS', secure'
p1904
aS', very clean'
p1905
aS', nice'
p1906
aS', comfortable'
p1907
aS'new'
p1908
aS', perfect'
p1909
aS', nice'
p1910
aS'very nice'
p1911
aS', very comfortable'
p1912
aS', very clean'
p1913
aS', quite loud'
p1914
aS', clean'
p1915
aS', not as clean'
p1916
aS', really good'
p1917
aS', clean'
p1918
aS'Very clean'
p1919
aS', clean'
p1920
aS', clean'
p1921
aS', aware'
p1922
aS', clean'
p1923
aS', great'
p1924
aS', better'
p1925
aS', worth'
p1926
aS'of well Nice located, carreful'
p1927
aS', clean'
p1928
aS', exactly as great advertised'
p1929
aS', very exactly cozy'
p1930
aS', very comfortable'
p1931
aS', clean'
p1932
aS", n't ready"
p1933
aS', ready'
p1934
aS', clean'
p1935
aS', clean'
p1936
aS', just as cute'
p1937
aS'Clean'
p1938
aS'great'
p1939
aS', cute'
p1940
aS', fresh'
p1941
aS', very comfy'
p1942
aS', very clean'
p1943
aS', perfect'
p1944
aS'Lovely clean'
p1945
aS', very clean'
p1946
aS', pretty clean'
p1947
aS'amazing'
p1948
aS'clean'
p1949
aS'private, clean'
p1950
aS', super'
p1951
aS', very clean'
p1952
aS', very clean'
p1953
aS', clean'
p1954
aS'Clean'
p1955
aS'many'
p1956
aS', very very clean friendly'
p1957
aS', clean'
p1958
aS', longer, apt clean'
p1959
aS', worth'
p1960
aS'pretty tacky'
p1961
aS', pretty clean'
p1962
aS'cute'
p1963
aS', hot'
p1964
aS', reasonably safe'
p1965
aS', dim'
p1966
aS', very cozy perfect'
p1967
aS', fine'
p1968
aS', fine dated'
p1969
aS', very comfortable'
p1970
aS', yet clean small'
p1971
aS', clean'
p1972
aS', comfortable'
p1973
aS', very clean'
p1974
aS', better'
p1975
aS', very nice'
p1976
aS', bright clean'
p1977
aS', really cozy'
p1978
aS', clean'
p1979
aS', clean'
p1980
aS', quite clean'
p1981
aS'friendly'
p1982
aS'Nice'
p1983
aS', clean'
p1984
aS'not clean nice'
p1985
aS', pretty spare'
p1986
aS', nice, pretty loud'
p1987
aS', nice, pretty loud'
p1988
aS', clean'
p1989
aS', clean'
p1990
aS', nice'
p1991
aS', clean'
p1992
aS', nice'
p1993
aS', which perfect'
p1994
aS'clean comfortable'
p1995
aS', great'
p1996
aS'great'
p1997
aS', pretty nice'
p1998
aS', clean'
p1999
ag1999
aS', clean, most which important'
p2000
aS'Clean'
p2001
aS', clean'
p2002
aS'private, great'
p2003
aS', ready, accurate'
p2004
aS', accurate'
p2005
aS', clean'
p2006
aS', clean'
p2007
aS', wonderful'
p2008
aS', very clean'
p2009
aS', very clean'
p2010
aS', very clean'
p2011
aS', modest'
p2012
aS', clean'
p2013
aS', very comfortable'
p2014
aS'clean'
p2015
aS', clean'
p2016
aS'clean'
p2017
aS', comfortable'
p2018
aS', clean little'
p2019
aS'Nice clean'
p2020
aS', right'
p2021
aS', clean'
p2022
aS', very clean'
p2023
aS', just perfect'
p2024
aS'great'
p2025
aS', very secure'
p2026
aS', clean'
p2027
aS', clean'
p2028
aS', perfect'
p2029
aS'nice'
p2030
aS', Very happy'
p2031
aS', warm'
p2032
aS', nice'
p2033
aS', very clean'
p2034
aS', clean'
p2035
aS', very clean'
p2036
aS'Great'
p2037
aS', clean'
p2038
aS'clean'
p2039
aS'Basic clean'
p2040
aS', nice'
p2041
ag2041
aS', clean'
p2042
aS', generally clean'
p2043
aS', clean'
p2044
aS', really friendly'
p2045
aS', clean'
p2046
aS", n't as clean, quite noisy"
p2047
aS'good'
p2048
aS', clean'
p2049
aS', clean'
p2050
aS', clean'
p2051
aS'Clean'
p2052
aS', clean'
p2053
aS', clean'
p2054
aS'Great'
p2055
aS'Great private clean'
p2056
aS', OK'
p2057
aS', amazing'
p2058
aS', very comfortable warm'
p2059
aS'nice private'
p2060
aS'Clean good'
p2061
aS', which cozy'
p2062
aS'pretty nice'
p2063
aS', small, perfect'
p2064
aS', small, very nice'
p2065
aS', clean'
p2066
aS', perfectly fitting'
p2067
aS', very clean'
p2068
aS', very clean'
p2069
aS'Phenomenal little'
p2070
aS', clean'
p2071
aS', ready'
p2072
aS', clean'
p2073
aS', awesome, clean'
p2074
aS', very clean'
p2075
aS', very comfortable'
p2076
aS'Cozy'
p2077
aS', very clean'
p2078
aS', clean'
p2079
aS', tidy'
p2080
aS', pleasant clean'
p2081
aS', very lovely'
p2082
aS'Awesome'
p2083
aS', clean'
p2084
aS', nice'
p2085
aS'just very perfect spacious clean'
p2086
aS'really great'
p2087
aS', very which useful'
p2088
aS', nice'
p2089
aS', clean'
p2090
aS', clean'
p2091
aS'few, clean'
p2092
aS'very Small clean'
p2093
aS', much warmer'
p2094
aS'private, warm'
p2095
aS', wonderful'
p2096
aS', very clean'
p2097
aS', clean'
p2098
aS', beautiful'
p2099
aS', exactly advertised'
p2100
aa(lp2101
S', ok'
p2102
aS'great'
p2103
aS'very great'
p2104
aS', very awesome'
p2105
aS', quick'
p2106
aS'comfortable'
p2107
aS'good'
p2108
aS'nice'
p2109
aS', fine'
p2110
aS'sure'
p2111
aS'comfortable'
p2112
aS'favorite'
p2113
aS'easy'
p2114
aS'all good'
p2115
aS'comfortable'
p2116
aS'great'
p2117
aS'great'
p2118
aS'happy'
p2119
aS'first'
p2120
aS'pleasant'
p2121
aS'great'
p2122
aS', ok'
p2123
aS', sure'
p2124
aS', great'
p2125
aS'good'
p2126
aS'great'
p2127
aS'really nice'
p2128
aS'great'
p2129
aS'Such nice'
p2130
aS'good'
p2131
aS'brilliant'
p2132
aS'comfortable'
p2133
aS'very pleasant'
p2134
aS'Great'
p2135
aS'good'
p2136
aS'great'
p2137
aS'Great'
p2138
aS'great'
p2139
aS'great'
p2140
aS'very nice'
p2141
aS'great'
p2142
aS'good'
p2143
aS'wonderful'
p2144
aS'great'
p2145
aS'good'
p2146
aS'great'
p2147
aS'great apt'
p2148
aS'Comfortable'
p2149
aS'awesome'
p2150
aS'wonderful'
p2151
aS', very safe'
p2152
aS'cheap'
p2153
aS'quick'
p2154
aS'great'
p2155
aS'comfortable'
p2156
aS'great'
p2157
aS', comfortable'
p2158
aS'nice'
p2159
aS'good'
p2160
aS', pretty good'
p2161
aS'Great'
p2162
aS'all good'
p2163
aS'perfect'
p2164
aS'2nd, as good'
p2165
aS'nice'
p2166
aS'pleasant'
p2167
aS', pleasant'
p2168
aS'good'
p2169
aS'Great'
p2170
aS'awesome'
p2171
aS'great'
p2172
aS'wonderful'
p2173
aS'wonderful'
p2174
aS'great'
p2175
aS'very comfortable'
p2176
aS', very comfortable'
p2177
aS'great'
p2178
aS', overall pleasant'
p2179
aS'great'
p2180
aS'nice'
p2181
aS', pleasant'
p2182
aS'excellent'
p2183
aS'cheap'
p2184
aS'Delightful'
p2185
aS'not good sure'
p2186
aS'Great'
p2187
aS'comfortable'
p2188
aS', absolutely wonderful'
p2189
aS'wonderful'
p2190
aS'wonderful'
p2191
aS'great'
p2192
aS', great'
p2193
aS'Great'
p2194
aS', willing'
p2195
aS'short great'
p2196
aS', incredibly responsive'
p2197
aS'great'
p2198
aS'very pleasant'
p2199
aS'quick'
p2200
aS'good quiet'
p2201
aS'great'
p2202
aS'much Really better safe'
p2203
aS'great'
p2204
aS'fantastic'
p2205
aS'great super affordable'
p2206
aatp2207
ba(lp2208
g15
(g16
(dp2209
g18
g19
(g20
(I0
tp2210
g22
tp2211
Rp2212
(I1
(I2
tp2213
g29
I00
(lp2214
g33
ag34
atp2215
bsg36
g37
stp2216
Rp2217
a(dp2218
S'0.14.1'
p2219
(dp2220
S'axes'
p2221
g14
sS'blocks'
p2222
(lp2223
(dp2224
S'mgr_locs'
p2225
c__builtin__
slice
p2226
(I0
I2
I1
tp2227
Rp2228
sS'values'
p2229
g63
sasstp2230
bsb.